MPASM 03.90 Released                      INTERRUPTHANDLERS.C   4-19-2006  15:34:01         PAGE  1


LOC  OBJECT CODE     LINE SOURCE TEXT
  VALUE

                      00001 
                      00002 #include "ifi_default.h"
Error[108]  : Illegal character (/)
                      00001 /*******************************************************************************
Error[108]  : Illegal character (*)
                      00002 * FILE NAME: ifi_default.h
Error[108]  : Illegal character (*)
                      00003 *
Error[108]  : Illegal character (*)
                      00004 * DESCRIPTION: 
Error[108]  : Illegal character (*)
                      00005 *  This file contains important data definitions.              
Error[108]  : Illegal character (*)
                      00006 *
Error[108]  : Illegal character (*)
                      00007 *  DO NOT EDIT THIS FILE!
Error[108]  : Illegal character (*)
                      00008 *******************************************************************************/
                      00009 
                      00010 #ifndef __ifi_default_h_
                      00011 #define __ifi_default_h_
                      00012 
Error[105]  : Cannot open file (Include File "p18cxxx.h" not found)
                      00013 #include <p18cxxx.h>
                      00014 #define UNCHANGEABLE_DEFINITION_AREA 1
                      00015 
                      00016 #ifdef UNCHANGEABLE_DEFINITION_AREA
                      00017 
Error[108]  : Illegal character (/)
                      00018 /*******************************************************************************
Warning[207]: Found label after column 1. (ALIAS)
Error[122]  : Illegal opcode (DEFINITIONS)
                      00019                              ALIAS DEFINITIONS
Error[108]  : Illegal character (*)
                      00020 *******************************************************************************/
Error[108]  : Illegal character (/)
                      00021                            /* DO NOT CHANGE! */
                      00022 
                      00023 #define   DATA_SIZE          30
                      00024 #define   SPI_TRAILER_SIZE   2
                      00025 #define   SPI_XFER_SIZE      DATA_SIZE + SPI_TRAILER_SIZE
                      00026 
                      00027 #define   FALSE             0
                      00028 #define   TRUE              !FALSE
                      00029 
                      00030 #ifdef    _SIMULATOR
                      00031 #define   RESET_VECTOR      0x000
                      00032 #define   HIGH_INT_VECTOR   0x008
                      00033 #define   LOW_INT_VECTOR    0x018
                      00034 #else
                      00035 #define   RESET_VECTOR      0x800
                      00036 #define   HIGH_INT_VECTOR   0x808
                      00037 #define   LOW_INT_VECTOR    0x818
MPASM 03.90 Released                      INTERRUPTHANDLERS.C   4-19-2006  15:34:01         PAGE  2


LOC  OBJECT CODE     LINE SOURCE TEXT
  VALUE

                      00038 #endif
                      00039 
                      00040 
Error[108]  : Illegal character (/)
                      00041 /*******************************************************************************
  0000                00042                             VARIABLE DECLARATIONS
Error[108]  : Illegal character (*)
  0000                00043 *******************************************************************************/
Error[108]  : Illegal character (/)
  0000                00044                             /* DO NOT CHANGE! */
Error[108]  : Illegal character (/)
  0000                00045 /* This structure contains important system status information. */
Error[122]  : Illegal opcode (struct)
  0000                00046 typedef struct
Error[108]  : Illegal character ({)
  0000                00047 {
Warning[207]: Found label after column 1. (unsigned)
Error[122]  : Illegal opcode (int)
  0000                00048   unsigned int  :5;
Warning[207]: Found label after column 1. (unsigned)
Error[122]  : Illegal opcode (int)
  0000                00049   unsigned int  user_display:1;  /* User display enabled = 1, disabled = 0 */
Warning[207]: Found label after column 1. (unsigned)
Error[122]  : Illegal opcode (int)
  0000                00050   unsigned int  autonomous:1;    /* Autonomous enabled = 1, disabled = 0 */
Warning[207]: Found label after column 1. (unsigned)
Error[122]  : Illegal opcode (int)
  0000                00051   unsigned int  disabled:1;      /* Robot disabled = 1, enabled = 0 */
Error[108]  : Illegal character (})
  0000                00052 } modebits;
                      00053 
Error[108]  : Illegal character (/)
                      00054 /******************************************************************************/
Error[108]  : Illegal character (/)
                      00055                             /* DO NOT CHANGE! */
Error[108]  : Illegal character (/)
                      00056 /* This structure allows you to address specific bits of a byte.*/
Error[122]  : Illegal opcode (struct)
                      00057 typedef struct
Error[108]  : Illegal character ({)
                      00058 {
Warning[207]: Found label after column 1. (unsigned)
Error[122]  : Illegal opcode (int)
                      00059   unsigned int  bit0:1;
Warning[207]: Found label after column 1. (unsigned)
Error[122]  : Illegal opcode (int)
                      00060   unsigned int  bit1:1;
Warning[207]: Found label after column 1. (unsigned)
Error[122]  : Illegal opcode (int)
                      00061   unsigned int  bit2:1;
Warning[207]: Found label after column 1. (unsigned)
Error[122]  : Illegal opcode (int)
                      00062   unsigned int  bit3:1;
MPASM 03.90 Released                      INTERRUPTHANDLERS.C   4-19-2006  15:34:01         PAGE  3


LOC  OBJECT CODE     LINE SOURCE TEXT
  VALUE

Warning[207]: Found label after column 1. (unsigned)
Error[122]  : Illegal opcode (int)
                      00063   unsigned int  bit4:1;
Warning[207]: Found label after column 1. (unsigned)
Error[122]  : Illegal opcode (int)
                      00064   unsigned int  bit5:1;
Warning[207]: Found label after column 1. (unsigned)
Error[122]  : Illegal opcode (int)
                      00065   unsigned int  bit6:1;
Warning[207]: Found label after column 1. (unsigned)
Error[122]  : Illegal opcode (int)
                      00066   unsigned int  bit7:1;
Error[108]  : Illegal character (})
                      00067 } bitid;
                      00068 
Error[108]  : Illegal character (/)
                      00069 /******************************************************************************/
Error[108]  : Illegal character (/)
                      00070                             /* DO NOT CHANGE! */
Error[108]  : Illegal character (/)
                      00071 /* This structure defines the contents of the data received from the Master
Error[108]  : Illegal character (*)
                      00072  * microprocessor. */
Error[122]  : Illegal opcode (struct)
                      00073 typedef struct  {     /* begin rx_data_record structure */
Warning[207]: Found label after column 1. (unsigned)
Error[122]  : Illegal opcode (char)
                      00074   unsigned char packet_num;
Warning[207]: Found label after column 1. (union)
Error[150]  : Labels must be defined in a code or data section when making an object file
000000                00075   union
Error[108]  : Illegal character ({)
000000                00076   { 
Warning[207]: Found label after column 1. (bitid)
Error[122]  : Illegal opcode (bitselect)
000000                00077     bitid bitselect;
Warning[207]: Found label after column 1. (modebits)
Error[122]  : Illegal opcode (mode)
000000                00078     modebits mode;            /*rxdata.rc_mode_byte.mode.(user_display|autonomous|disabled)*/
Warning[207]: Found label after column 1. (unsigned)
Error[122]  : Illegal opcode (char)
000000                00079     unsigned char allbits;    /*rxdata.rc_mode_byte.allbits*/
Error[108]  : Illegal character (})
000000                00080   } rc_mode_byte;
Warning[207]: Found label after column 1. (union)
Error[150]  : Labels must be defined in a code or data section when making an object file
000000                00081   union
Error[108]  : Illegal character ({)
000000                00082   {
Warning[207]: Found label after column 1. (bitid)
Error[122]  : Illegal opcode (bitselect)
000000                00083     bitid bitselect;          /*rxdata.oi_swA_byte.bitselect.bit0*/
Warning[207]: Found label after column 1. (unsigned)
MPASM 03.90 Released                      INTERRUPTHANDLERS.C   4-19-2006  15:34:01         PAGE  4


LOC  OBJECT CODE     LINE SOURCE TEXT
  VALUE

Error[122]  : Illegal opcode (char)
000000                00084     unsigned char allbits;    /*rxdata.oi_swA_byte.allbits*/
Error[108]  : Illegal character (})
000000                00085   } oi_swA_byte;  
Warning[207]: Found label after column 1. (union)
Error[150]  : Labels must be defined in a code or data section when making an object file
000000                00086   union
Error[108]  : Illegal character ({)
000000                00087   {
Warning[207]: Found label after column 1. (bitid)
Error[122]  : Illegal opcode (bitselect)
000000                00088     bitid bitselect;          /*rxdata.oi_swB_byte.bitselect.bit0*/
Warning[207]: Found label after column 1. (unsigned)
Error[122]  : Illegal opcode (char)
000000                00089     unsigned char allbits;    /*rxdata.oi_swB_byte.allbits*/
Error[108]  : Illegal character (})
000000                00090   } oi_swB_byte;  
Warning[207]: Found label after column 1. (union)
Error[150]  : Labels must be defined in a code or data section when making an object file
000000                00091   union
Error[108]  : Illegal character ({)
000000                00092   {
Warning[207]: Found label after column 1. (bitid)
Error[122]  : Illegal opcode (bitselect)
000000                00093     bitid bitselect;          /*rxdata.rc_swA_byte.bitselect.bit0*/
Warning[207]: Found label after column 1. (unsigned)
Error[122]  : Illegal opcode (char)
000000                00094     unsigned char allbits;    /*rxdata.rc_swA_byte.allbits*/
Error[108]  : Illegal character (})
000000                00095   } rc_swA_byte;
Warning[207]: Found label after column 1. (union)
Error[150]  : Labels must be defined in a code or data section when making an object file
000000                00096   union
Error[108]  : Illegal character ({)
000000                00097   {
Warning[207]: Found label after column 1. (bitid)
Error[122]  : Illegal opcode (bitselect)
000000                00098     bitid bitselect;          /*rxdata.rc_swB_byte.bitselect.bit0*/
Warning[207]: Found label after column 1. (unsigned)
Error[122]  : Illegal opcode (char)
000000                00099     unsigned char allbits;    /*rxdata.rc_swB_byte.allbits*/
Error[108]  : Illegal character (})
000000                00100   } rc_swB_byte;
Warning[207]: Found label after column 1. (unsigned)
Error[122]  : Illegal opcode (char)
000000                00101   unsigned char oi_analog01, oi_analog02, oi_analog03, oi_analog04;  /*rxdata.oi_analog01*/
Warning[207]: Found label after column 1. (unsigned)
Error[122]  : Illegal opcode (char)
000000                00102   unsigned char oi_analog05, oi_analog06, oi_analog07, oi_analog08;         
Warning[207]: Found label after column 1. (unsigned)
Error[122]  : Illegal opcode (char)
000000                00103   unsigned char oi_analog09, oi_analog10, oi_analog11, oi_analog12;
Warning[207]: Found label after column 1. (unsigned)
MPASM 03.90 Released                      INTERRUPTHANDLERS.C   4-19-2006  15:34:01         PAGE  5


LOC  OBJECT CODE     LINE SOURCE TEXT
  VALUE

Error[122]  : Illegal opcode (char)
000000                00104   unsigned char oi_analog13, oi_analog14, oi_analog15, oi_analog16;
Warning[207]: Found label after column 1. (unsigned)
Error[122]  : Illegal opcode (char)
000000                00105   unsigned char rc_main_batt, rc_backup_batt;
Warning[207]: Found label after column 1. (unsigned)
Error[122]  : Illegal opcode (char)
000000                00106   unsigned char reserve[8];;
Error[108]  : Illegal character (})
000000                00107 } rx_data_record;
                      00108 
Error[122]  : Illegal opcode (rx_data_record)
                      00109 typedef rx_data_record *rx_data_ptr;
                      00110 
Error[108]  : Illegal character (/)
                      00111 /******************************************************************************/
Error[108]  : Illegal character (/)
                      00112                             /* DO NOT CHANGE! */
Error[108]  : Illegal character (/)
                      00113 /* This structure defines the contents of the data transmitted to the master  
Error[108]  : Illegal character (*)
                      00114  * microprocessor. */
Error[122]  : Illegal opcode (struct)
                      00115 typedef struct  {     /*begin tx_data_record structure*/
Warning[207]: Found label after column 1. (union)
Error[150]  : Labels must be defined in a code or data section when making an object file
000000                00116   union
Error[108]  : Illegal character ({)
000000                00117   { 
Warning[207]: Found label after column 1. (bitid)
Error[122]  : Illegal opcode (bitselect)
000000                00118     bitid bitselect;          /*txdata.LED_byte1.bitselect.bit0*/
Warning[207]: Found label after column 1. (unsigned)
Error[122]  : Illegal opcode (char)
000000                00119     unsigned char data;       /*txdata.LED_byte1.data*/
Error[108]  : Illegal character (})
000000                00120   } LED_byte1;
Warning[207]: Found label after column 1. (union)
Error[150]  : Labels must be defined in a code or data section when making an object file
000000                00121   union
Error[108]  : Illegal character ({)
000000                00122   { 
Warning[207]: Found label after column 1. (bitid)
Error[122]  : Illegal opcode (bitselect)
000000                00123     bitid bitselect;          /*txdata.LED_byte2.bitselect.bit0*/
Warning[207]: Found label after column 1. (unsigned)
Error[122]  : Illegal opcode (char)
000000                00124     unsigned char data;       /*txdata.LED_byte2.data*/
Error[108]  : Illegal character (})
000000                00125   } LED_byte2;
Warning[207]: Found label after column 1. (union)
Error[150]  : Labels must be defined in a code or data section when making an object file
000000                00126   union
MPASM 03.90 Released                      INTERRUPTHANDLERS.C   4-19-2006  15:34:01         PAGE  6


LOC  OBJECT CODE     LINE SOURCE TEXT
  VALUE

Error[108]  : Illegal character ({)
000000                00127   {
Warning[207]: Found label after column 1. (bitid)
Error[122]  : Illegal opcode (bitselect)
000000                00128     bitid bitselect;          /*txdata.user_byte1.bitselect.bit0*/
Warning[207]: Found label after column 1. (unsigned)
Error[122]  : Illegal opcode (char)
000000                00129     unsigned char allbits;    /*txdata.user_byte1.allbits*/
Error[108]  : Illegal character (})
000000                00130   } user_byte1;               /*for OI feedback*/
Warning[207]: Found label after column 1. (union)
Error[150]  : Labels must be defined in a code or data section when making an object file
000000                00131   union
Error[108]  : Illegal character ({)
000000                00132   {
Warning[207]: Found label after column 1. (bitid)
Error[122]  : Illegal opcode (bitselect)
000000                00133     bitid bitselect;          /*txdata.user_byte2.bitselect.bit0*/
Warning[207]: Found label after column 1. (unsigned)
Error[122]  : Illegal opcode (char)
000000                00134     unsigned char allbits;    /*txdata.user_byte2.allbits*/
Error[108]  : Illegal character (})
000000                00135   } user_byte2;               /*for OI feedback*/
Warning[207]: Found label after column 1. (unsigned)
Error[122]  : Illegal opcode (char)
000000                00136   unsigned char rc_pwm01, rc_pwm02, rc_pwm03, rc_pwm04;   /*txdata.rc_pwm01*/
Warning[207]: Found label after column 1. (unsigned)
Error[122]  : Illegal opcode (char)
000000                00137   unsigned char rc_pwm05, rc_pwm06, rc_pwm07, rc_pwm08;
Warning[207]: Found label after column 1. (unsigned)
Error[122]  : Illegal opcode (char)
000000                00138   unsigned char rc_pwm09, rc_pwm10, rc_pwm11, rc_pwm12;
Warning[207]: Found label after column 1. (unsigned)
Error[122]  : Illegal opcode (char)
000000                00139   unsigned char rc_pwm13, rc_pwm14, rc_pwm15, rc_pwm16;
                      00140 
Warning[207]: Found label after column 1. (unsigned)
Error[122]  : Illegal opcode (char)
                      00141   unsigned char user_cmd;     /*reserved - for future use*/
Warning[207]: Found label after column 1. (unsigned)
Error[122]  : Illegal opcode (char)
                      00142   unsigned char cmd_byte1;    /*reserved - Don't use*/
Warning[207]: Found label after column 1. (unsigned)
Error[122]  : Illegal opcode (char)
                      00143   unsigned char pwm_mask;     /*<EDU> make sure you know how this works before changing*/
Warning[207]: Found label after column 1. (unsigned)
Error[122]  : Illegal opcode (char)
                      00144   unsigned char warning_code; /*reserved - Don't use*/
Warning[207]: Found label after column 1. (unsigned)
Error[122]  : Illegal opcode (char)
                      00145   unsigned char user_byte3;   /*<FRC> break panel byte 3 */
Warning[207]: Found label after column 1. (unsigned)
Error[122]  : Illegal opcode (char)
MPASM 03.90 Released                      INTERRUPTHANDLERS.C   4-19-2006  15:34:01         PAGE  7


LOC  OBJECT CODE     LINE SOURCE TEXT
  VALUE

                      00146   unsigned char user_byte4;   /*<FRC> break panel byte 4 */
Warning[207]: Found label after column 1. (unsigned)
Error[122]  : Illegal opcode (char)
                      00147   unsigned char user_byte5;   /*<FRC> break panel byte 5 */
Warning[207]: Found label after column 1. (unsigned)
Error[122]  : Illegal opcode (char)
                      00148   unsigned char user_byte6;   /*<FRC> break panel byte 6 */
Warning[207]: Found label after column 1. (unsigned)
Error[122]  : Illegal opcode (char)
                      00149   unsigned char error_code;   /*reserved - Don't use*/
Warning[207]: Found label after column 1. (unsigned)
Error[122]  : Illegal opcode (char)
                      00150   unsigned char packetnum;    /*reserved - Don't use*/
Warning[207]: Found label after column 1. (unsigned)
Error[122]  : Illegal opcode (char)
                      00151   unsigned char current_mode; /*reserved - Don't use*/
Warning[207]: Found label after column 1. (unsigned)
Error[122]  : Illegal opcode (char)
                      00152   unsigned char control;      /*reserved - Don't use*/
Error[108]  : Illegal character (})
                      00153 } tx_data_record;
                      00154 
Error[122]  : Illegal opcode (tx_data_record)
                      00155 typedef tx_data_record *tx_data_ptr;
                      00156 
                      00157 
Error[108]  : Illegal character (/)
                      00158 /******************************************************************************/
Error[108]  : Illegal character (/)
                      00159                             /* DO NOT CHANGE! */
Error[108]  : Illegal character (/)
                      00160 /* This structure defines some flags which are used by the system. */
                      00161 
Error[122]  : Illegal opcode (struct)
                      00162 typedef struct
Error[108]  : Illegal character ({)
                      00163 {
Warning[207]: Found label after column 1. (unsigned)
Error[122]  : Illegal opcode (int)
                      00164   unsigned int  NEW_SPI_DATA:1;
Warning[207]: Found label after column 1. (unsigned)
Error[122]  : Illegal opcode (int)
                      00165   unsigned int  TX_UPDATED:1;
Warning[207]: Found label after column 1. (unsigned)
Error[122]  : Illegal opcode (int)
                      00166   unsigned int  FIRST_TIME:1;
Warning[207]: Found label after column 1. (unsigned)
Error[122]  : Illegal opcode (int)
                      00167   unsigned int  TX_BUFFSELECT:1;
Warning[207]: Found label after column 1. (unsigned)
Error[122]  : Illegal opcode (int)
                      00168   unsigned int  RX_BUFFSELECT:1;
Warning[207]: Found label after column 1. (unsigned)
MPASM 03.90 Released                      INTERRUPTHANDLERS.C   4-19-2006  15:34:01         PAGE  8


LOC  OBJECT CODE     LINE SOURCE TEXT
  VALUE

Error[122]  : Illegal opcode (int)
                      00169   unsigned int  SPI_SEMAPHORE:1;
Warning[207]: Found label after column 1. (unsigned)
Error[122]  : Illegal opcode (int)
                      00170   unsigned int  :2;
Error[108]  : Illegal character (})
                      00171 } packed_struct;
                      00172 
Error[108]  : Illegal character (/)
                      00173 /******************************************************************************/
                      00174 
Warning[205]: Found directive in column 1. (extern)
Error[121]  : Illegal label (tx_data_record txdata)
  0000                00175 extern tx_data_record txdata; 
Warning[205]: Found directive in column 1. (extern)
Error[121]  : Illegal label (rx_data_record rxdata)
  0000                00176 extern rx_data_record rxdata; 
Warning[205]: Found directive in column 1. (extern)
Error[121]  : Illegal label (packed_struct statusflag)
  0000                00177 extern packed_struct statusflag;
                      00178 
                      00179 #else
                      00180 #error  *** Error - Invalid Default File!
                      00181 #endif
                      00182 
Error[108]  : Illegal character (/)
                      00183 /*******************************************************************************
Warning[207]: Found label after column 1. (FUNCTION)
Error[122]  : Illegal opcode (PROTOTYPES)
                      00184                            FUNCTION PROTOTYPES
Error[108]  : Illegal character (*)
                      00185 *******************************************************************************/
                      00186 
Error[108]  : Illegal character (/)
                      00187 /* These routines reside in ifi_library.lib */
Error[108]  : Illegal character (/)
                      00188 /*******************************************************************************
Error[108]  : Illegal character (*)
                      00189 * FUNCTION NAME: InterruptVectorHigh
Error[108]  : Illegal character (*)
                      00190 * PURPOSE:       This vector jumps to the appropriate high pri. interrupt handler.
Error[108]  : Illegal character (*)
                      00191 * CALLED FROM:   High priority interrupt vector
Error[108]  : Illegal character (*)
                      00192 * ARGUMENTS:     none
Error[108]  : Illegal character (*)
                      00193 * RETURNS:       void
Error[108]  : Illegal character (*)
                      00194 *******************************************************************************/
Error[122]  : Illegal opcode (InterruptHandlerHigh)
                      00195 void InterruptHandlerHigh (void);;
                      00196 
Error[122]  : Illegal opcode (Initialize_Registers)
MPASM 03.90 Released                      INTERRUPTHANDLERS.C   4-19-2006  15:34:01         PAGE  9


LOC  OBJECT CODE     LINE SOURCE TEXT
  VALUE

                      00197 void Initialize_Registers (void);;
Error[108]  : Illegal character (/)
                      00198 /*******************************************************************************
Error[108]  : Illegal character (*)
                      00199 * FUNCTION NAME: IFI_Initialization
Error[108]  : Illegal character (*)
                      00200 * PURPOSE:       Configure registers and initializes the SPI RX/TX buffers.
Error[108]  : Illegal character (*)
                      00201 * CALLED FROM:   main.c
Error[108]  : Illegal character (*)
                      00202 * ARGUMENTS:     none
Error[108]  : Illegal character (*)
                      00203 * RETURNS:       void
Error[108]  : Illegal character (*)
                      00204 *******************************************************************************/
Error[122]  : Illegal opcode (IFI_Initialization)
                      00205 void IFI_Initialization (void);;
                      00206 
Error[108]  : Illegal character (/)
                      00207 /*******************************************************************************
Error[108]  : Illegal character (*)
                      00208 * FUNCTION NAME: User_Proc_Is_Ready
Error[108]  : Illegal character (*)
                      00209 * PURPOSE:       This routine informs the master processor that all user 
Error[108]  : Illegal character (*)
                      00210 *                initalization has been complete.  The call to this routine must 
Error[108]  : Illegal character (*)
                      00211 *                always be the last line of User_Initialization.  
Error[108]  : Illegal character (*)
                      00212 * CALLED FROM:   user_routines.c
Error[108]  : Illegal character (*)
                      00213 * ARGUMENTS:     none
Error[108]  : Illegal character (*)
                      00214 * RETURNS:       void 
Error[108]  : Illegal character (*)
                      00215 *******************************************************************************/
Error[122]  : Illegal opcode (User_Proc_Is_Ready)
                      00216 void User_Proc_Is_Ready (void);;
                      00217 
Error[108]  : Illegal character (/)
                      00218 /*******************************************************************************
Error[108]  : Illegal character (*)
                      00219 * FUNCTION NAME: Putdata
Error[108]  : Illegal character (*)
                      00220 * PURPOSE:       Fill the transmit buffer with data to send out to the master 
Error[108]  : Illegal character (*)
                      00221 *                microprocessor. This routine takes 23 us to complete.
Error[108]  : Illegal character (*)
                      00222 * CALLED FROM:   user_routines(_fast).c
Error[108]  : Illegal character (*)
                      00223 * ARGUMENTS:     
Error[108]  : Illegal character (*)
                      00224 *     Argument       Type           IO   Description
MPASM 03.90 Released                      INTERRUPTHANDLERS.C   4-19-2006  15:34:01         PAGE 10


LOC  OBJECT CODE     LINE SOURCE TEXT
  VALUE

Error[108]  : Illegal character (*)
                      00225 *     --------       -----------    --   -----------
Error[108]  : Illegal character (*)
                      00226 *          ptr       tx_data_ptr    I    pointer to the transmit buffer
Error[108]  : Illegal character (*)
                      00227 * RETURNS:       void
Error[108]  : Illegal character (*)
                      00228 *******************************************************************************/
Error[122]  : Illegal opcode (Putdata)
                      00229 void Putdata(tx_data_ptr ptr);;
                      00230 
Error[108]  : Illegal character (/)
                      00231 /*******************************************************************************
Error[108]  : Illegal character (*)
                      00232 * FUNCTION NAME: Getdata
Error[108]  : Illegal character (*)
                      00233 * PURPOSE:       Retrieve data from the SPI receive buffer sent by the master 
Error[108]  : Illegal character (*)
                      00234 *                microprocessor.  This routine takes 14.8 us to complete.
Error[108]  : Illegal character (*)
                      00235 * CALLED FROM:   user_routines(_fast).c
Error[108]  : Illegal character (*)
                      00236 * ARGUMENTS:     
Error[108]  : Illegal character (*)
                      00237 *     Argument       Type           IO   Description
Error[108]  : Illegal character (*)
                      00238 *     --------       -----------    --   -----------
Error[108]  : Illegal character (*)
                      00239 *          ptr       rx_data_ptr    I    pointer to the receive buffer
Error[108]  : Illegal character (*)
                      00240 * RETURNS:       void
Error[108]  : Illegal character (*)
                      00241 *******************************************************************************/
Error[122]  : Illegal opcode (Getdata)
                      00242 void Getdata(rx_data_ptr ptr);;
                      00243 
Error[108]  : Illegal character (/)
                      00244 /*******************************************************************************
Error[108]  : Illegal character (*)
                      00245 * FUNCTION NAME: Setup_PWM_Output_Type
Error[108]  : Illegal character (*)
                      00246 * PURPOSE:       
Error[108]  : Illegal character (*)
                      00247 * CALLED FROM:   user_routines.c
Error[108]  : Illegal character (*)
                      00248 * ARGUMENTS:     
Error[108]  : Illegal character (*)
                      00249 *     Argument       Type           IO   Description
Error[108]  : Illegal character (*)
                      00250 *     --------       -----------    --   -----------
Error[108]  : Illegal character (*)
                      00251 *     pwmSpec1       int            I    pwm13 type definition (IFI_PWM or USER_CCP)
Error[108]  : Illegal character (*)
MPASM 03.90 Released                      INTERRUPTHANDLERS.C   4-19-2006  15:34:01         PAGE 11


LOC  OBJECT CODE     LINE SOURCE TEXT
  VALUE

                      00252 *     pwmSpec2       int            I    pwm14 type definition (IFI_PWM or USER_CCP)
Error[108]  : Illegal character (*)
                      00253 *     pwmSpec3       int            I    pwm15 type definition (IFI_PWM or USER_CCP)
Error[108]  : Illegal character (*)
                      00254 *     pwmSpec4       int            I    pwm16 type definition (IFI_PWM or USER_CCP)
Error[108]  : Illegal character (*)
                      00255 * RETURNS:       void
Error[108]  : Illegal character (*)
                      00256 *******************************************************************************/
Error[122]  : Illegal opcode (Setup_PWM_Output_Type)
                      00257 void Setup_PWM_Output_Type(int pwmSpec1,int pwmSpec2,int pwmSpec3,int pwmSpec4);;
                      00258 
                      00259 #endif
                      00260 
Error[108]  : Illegal character (/)
                      00261 /******************************************************************************/
Error[108]  : Illegal character (/)
                      00262 /******************************************************************************/
Error[108]  : Illegal character (/)
                      00263 /******************************************************************************/
                      00003 #include "ifi_aliases.h"
Error[108]  : Illegal character (/)
                      00001 /********************************************************************************
Error[108]  : Illegal character (*)
                      00002 * FILE NAME: ifi_aliases.h <FRC VERSION>
Error[108]  : Illegal character (*)
                      00003 *
Error[108]  : Illegal character (*)
                      00004 * DESCRIPTION: 
Error[108]  : Illegal character (*)
                      00005 *  This file contains common macros (known as aliases in PBASIC) for the 
Error[108]  : Illegal character (*)
                      00006 *  I/O pins of the Robot Controller and elements in the data sent between the 
Error[108]  : Illegal character (*)
                      00007 *  User processor and the Master processor.
Error[108]  : Illegal character (*)
                      00008 *  
Error[108]  : Illegal character (*)
                      00009 *  If you want to create your own macros, do so in the designated section of 
Error[108]  : Illegal character (*)
                      00010 *  the user_routines.h file.
Error[108]  : Illegal character (*)
                      00011 *  
Error[108]  : Illegal character (*)
                      00012 *  DO NOT EDIT THIS FILE!
Error[108]  : Illegal character (*)
                      00013 ********************************************************************************/
                      00014 
                      00015 #ifndef __ifi_aliases_h_
                      00016 #define __ifi_aliases_h_
                      00017 
Error[105]  : Cannot open file (Include File "adc.h" not found)
                      00018 #include <adc.h>
MPASM 03.90 Released                      INTERRUPTHANDLERS.C   4-19-2006  15:34:01         PAGE 12


LOC  OBJECT CODE     LINE SOURCE TEXT
  VALUE

                      00019 
Error[108]  : Illegal character (/)
                      00020 /* PWM Type Definitions used in Setup_PWM_Output_Type(...) */
                      00021 #define IFI_PWM   0     /* Standard IFI PWM output generated with Generate_PWM(...) */
                      00022 #define USER_CCP  1     /* User can use PWM pin as digital I/O or CCP pin. */
                      00023 
Error[108]  : Illegal character (/)
                      00024 /*
Error[108]  : Illegal character (*)
                      00025  *-----------------------------------------------------------------------------------------------------
Error[108]  : Illegal character (*)
                      00026  *---------- Aliases for each OI analog input ---------------------------------------------------------
Error[108]  : Illegal character (*)
                      00027  *-----------------------------------------------------------------------------------------------------
Error[108]  : Illegal character (*)
                      00028  *  Below are aliases for the analog inputs located on the Operator Interface.
Error[108]  : Illegal character (*)
                      00029  */
                      00030 #define p1_y        rxdata.oi_analog01
                      00031 #define p2_y        rxdata.oi_analog02
                      00032 #define p3_y        rxdata.oi_analog03
                      00033 #define p4_y        rxdata.oi_analog04
                      00034 #define p1_x        rxdata.oi_analog05
                      00035 #define p2_x        rxdata.oi_analog06
                      00036 #define p3_x        rxdata.oi_analog07
                      00037 #define p4_x        rxdata.oi_analog08
                      00038 #define p1_wheel    rxdata.oi_analog09
                      00039 #define p2_wheel    rxdata.oi_analog10
                      00040 #define p3_wheel    rxdata.oi_analog11
                      00041 #define p4_wheel    rxdata.oi_analog12
                      00042 #define p1_aux      rxdata.oi_analog13
                      00043 #define p2_aux      rxdata.oi_analog14
                      00044 #define p3_aux      rxdata.oi_analog15
                      00045 #define p4_aux      rxdata.oi_analog16
                      00046 
Error[108]  : Illegal character (/)
                      00047 /*
Error[108]  : Illegal character (*)
                      00048  *-----------------------------------------------------------------------------------------------------
Error[108]  : Illegal character (*)
                      00049  *---------- Aliases for each OI switch input ---------------------------------------------------------
Error[108]  : Illegal character (*)
                      00050  *-----------------------------------------------------------------------------------------------------
Error[108]  : Illegal character (*)
                      00051  *  Below are aliases for the digital inputs located on the Operator Interface.
Error[108]  : Illegal character (*)
                      00052  *  Ports 1 & 3 have their inputs duplicated in ports 4 & 2 respectively.  The 
Error[108]  : Illegal character (*)
                      00053  *  inputs from ports 1 & 3 may be disabled via the 'Disable' dip switch 
Error[108]  : Illegal character (*)
                      00054  *  located on the Operator Interface.  See Users Manual for details.
Error[108]  : Illegal character (*)
                      00055  */
MPASM 03.90 Released                      INTERRUPTHANDLERS.C   4-19-2006  15:34:01         PAGE 13


LOC  OBJECT CODE     LINE SOURCE TEXT
  VALUE

                      00056 #define p1_sw_trig  rxdata.oi_swA_byte.bitselect.bit0 /* Joystick Trigger Button, same as Port4 pin5 */
                      00057 #define p1_sw_top   rxdata.oi_swA_byte.bitselect.bit1 /* Joystick Top Button,     same as Port4 pin8 */
                      00058 #define p1_sw_aux1  rxdata.oi_swA_byte.bitselect.bit2 /* Aux input,               same as Port4 pin9 */
                      00059 #define p1_sw_aux2  rxdata.oi_swA_byte.bitselect.bit3 /* Aux input,               same as Port4 pin15*/
                      00060 
                      00061 #define p3_sw_trig  rxdata.oi_swA_byte.bitselect.bit4 /* Joystick Trigger Button, same as Port2 pin5 */
                      00062 #define p3_sw_top   rxdata.oi_swA_byte.bitselect.bit5 /* Joystick Top Button,     same as Port2 pin8 */
                      00063 #define p3_sw_aux1  rxdata.oi_swA_byte.bitselect.bit6 /* Aux input,               same as Port2 pin9 */
                      00064 #define p3_sw_aux2  rxdata.oi_swA_byte.bitselect.bit7 /* Aux input,               same as Port2 pin15*/
                      00065 
                      00066 #define p2_sw_trig  rxdata.oi_swB_byte.bitselect.bit0 /* Joystick Trigger Button*/
                      00067 #define p2_sw_top   rxdata.oi_swB_byte.bitselect.bit1 /* Joystick Top Button*/
                      00068 #define p2_sw_aux1  rxdata.oi_swB_byte.bitselect.bit2 /* Aux input*/
                      00069 #define p2_sw_aux2  rxdata.oi_swB_byte.bitselect.bit3 /* Aux input*/
                      00070 
                      00071 #define p4_sw_trig  rxdata.oi_swB_byte.bitselect.bit4 /* Joystick Trigger Button*/
                      00072 #define p4_sw_top   rxdata.oi_swB_byte.bitselect.bit5 /* Joystick Top Button*/
                      00073 #define p4_sw_aux1  rxdata.oi_swB_byte.bitselect.bit6 /* Aux input*/
                      00074 #define p4_sw_aux2  rxdata.oi_swB_byte.bitselect.bit7 /* Aux input*/
                      00075 
Error[108]  : Illegal character (/)
                      00076 /*
Error[108]  : Illegal character (*)
                      00077  *-----------------------------------------------------------------------------------------------------
Error[108]  : Illegal character (*)
                      00078  *---------- Aliases for DIGITAL IN/OUT connectors ----------------------------------------------------
Error[108]  : Illegal character (*)
                      00079  *-----------------------------------------------------------------------------------------------------
Error[108]  : Illegal character (*)
                      00080  *  Below are aliases for the digital I/O located on the Robot Controller.
Error[108]  : Illegal character (*)
                      00081  *  They can be configured to be either Inputs or Outputs.
Error[108]  : Illegal character (*)
                      00082  */
                      00083 
                      00084 #define INPUT   1
                      00085 #define OUTPUT  0
                      00086 
Error[108]  : Illegal character (/)
                      00087 /* Used in User_Initialization routine in user_routines.c file. */
Error[108]  : Illegal character (/)
                      00088 /* Used to set pins as digital INPUTS or digital OUTPUTS. */
                      00089 #define digital_io_01   TRISBbits.TRISB2
                      00090 #define digital_io_02   TRISBbits.TRISB3
                      00091 #define digital_io_03   TRISBbits.TRISB4
                      00092 #define digital_io_04   TRISBbits.TRISB5
                      00093 #define digital_io_05   TRISBbits.TRISB6
                      00094 #define digital_io_06   TRISBbits.TRISB7
                      00095 #define digital_io_07   TRISHbits.TRISH0
                      00096 #define digital_io_08   TRISHbits.TRISH1
                      00097 #define digital_io_09   TRISHbits.TRISH2
                      00098 #define digital_io_10   TRISHbits.TRISH3
                      00099 #define digital_io_11   TRISJbits.TRISJ1
MPASM 03.90 Released                      INTERRUPTHANDLERS.C   4-19-2006  15:34:01         PAGE 14


LOC  OBJECT CODE     LINE SOURCE TEXT
  VALUE

                      00100 #define digital_io_12   TRISJbits.TRISJ2
                      00101 #define digital_io_13   TRISJbits.TRISJ3
                      00102 #define digital_io_14   TRISCbits.TRISC0
                      00103 #define digital_io_15   TRISJbits.TRISJ4
                      00104 #define digital_io_16   TRISJbits.TRISJ5
                      00105 #define digital_io_17   TRISJbits.TRISJ6
                      00106 #define digital_io_18   TRISJbits.TRISJ7
                      00107 
Error[108]  : Illegal character (/)
                      00108 /* Aliases used to read the pins when used as INPUTS. */
                      00109 #define rc_dig_in01     PORTBbits.RB2   /* external interrupt RB2/INT2      */
                      00110 #define rc_dig_in02     PORTBbits.RB3   /* external interrupt RB3/INT3      */
                      00111 #define rc_dig_in03     PORTBbits.RB4   /* external interrupt-on-change RB4 */
                      00112 #define rc_dig_in04     PORTBbits.RB5   /* external interrupt-on-change RB5 */
                      00113 #define rc_dig_in05     PORTBbits.RB6   /* external interrupt-on-change RB6 */
                      00114 #define rc_dig_in06     PORTBbits.RB7   /* external interrupt-on-change RB7 */
                      00115 #define rc_dig_in07     PORTHbits.RH0
                      00116 #define rc_dig_in08     PORTHbits.RH1
                      00117 #define rc_dig_in09     PORTHbits.RH2
                      00118 #define rc_dig_in10     PORTHbits.RH3
                      00119 #define rc_dig_in11     PORTJbits.RJ1
                      00120 #define rc_dig_in12     PORTJbits.RJ2
                      00121 #define rc_dig_in13     PORTJbits.RJ3
                      00122 #define rc_dig_in14     PORTCbits.RC0
                      00123 #define rc_dig_in15     PORTJbits.RJ4
                      00124 #define rc_dig_in16     PORTJbits.RJ5
                      00125 #define rc_dig_in17     PORTJbits.RJ6
                      00126 #define rc_dig_in18     PORTJbits.RJ7
                      00127 
Error[108]  : Illegal character (/)
                      00128 /* Aliases used to drive the pins when used as OUTPUTS. */
                      00129 #define rc_dig_out01    LATBbits.LATB2
                      00130 #define rc_dig_out02    LATBbits.LATB3
                      00131 #define rc_dig_out03    LATBbits.LATB4
                      00132 #define rc_dig_out04    LATBbits.LATB5
                      00133 #define rc_dig_out05    LATBbits.LATB6
                      00134 #define rc_dig_out06    LATBbits.LATB7
                      00135 #define rc_dig_out07    LATHbits.LATH0
                      00136 #define rc_dig_out08    LATHbits.LATH1
                      00137 #define rc_dig_out09    LATHbits.LATH2
                      00138 #define rc_dig_out10    LATHbits.LATH3
                      00139 #define rc_dig_out11    LATJbits.LATJ1
                      00140 #define rc_dig_out12    LATJbits.LATJ2
                      00141 #define rc_dig_out13    LATJbits.LATJ3
                      00142 #define rc_dig_out14    LATCbits.LATC0
                      00143 #define rc_dig_out15    LATJbits.LATJ4
                      00144 #define rc_dig_out16    LATJbits.LATJ5
                      00145 #define rc_dig_out17    LATJbits.LATJ6
                      00146 #define rc_dig_out18    LATJbits.LATJ7
                      00147 
Error[108]  : Illegal character (/)
                      00148 /*
Error[108]  : Illegal character (*)
MPASM 03.90 Released                      INTERRUPTHANDLERS.C   4-19-2006  15:34:01         PAGE 15


LOC  OBJECT CODE     LINE SOURCE TEXT
  VALUE

                      00149  *-----------------------------------------------------------------------------------------------------
Error[108]  : Illegal character (*)
                      00150  *---------- Aliases for PWM OUTPUTS ------------------------------------------------------------------
Error[108]  : Illegal character (*)
                      00151  *-----------------------------------------------------------------------------------------------------
Error[108]  : Illegal character (*)
                      00152  *  Below are aliases for the PWM OUTPUTS located on the Robot Controller.  
Error[108]  : Illegal character (*)
                      00153  */
                      00154 #define pwm01           txdata.rc_pwm01
                      00155 #define pwm02           txdata.rc_pwm02
                      00156 #define pwm03           txdata.rc_pwm03
                      00157 #define pwm04           txdata.rc_pwm04
                      00158 #define pwm05           txdata.rc_pwm05
                      00159 #define pwm06           txdata.rc_pwm06
                      00160 #define pwm07           txdata.rc_pwm07
                      00161 #define pwm08           txdata.rc_pwm08
                      00162 #define pwm09           txdata.rc_pwm09
                      00163 #define pwm10           txdata.rc_pwm10
                      00164 #define pwm11           txdata.rc_pwm11
                      00165 #define pwm12           txdata.rc_pwm12
                      00166 #define pwm13           txdata.rc_pwm13
                      00167 #define pwm14           txdata.rc_pwm14
                      00168 #define pwm15           txdata.rc_pwm15
                      00169 #define pwm16           txdata.rc_pwm16
                      00170 
Error[108]  : Illegal character (/)
                      00171 /*
Error[108]  : Illegal character (*)
                      00172  *-----------------------------------------------------------------------------------------------------
Error[108]  : Illegal character (*)
                      00173  *---------- Aliases for RELAY OUTPUTS connectors ----------------------------------------------------
Error[108]  : Illegal character (*)
                      00174  *-----------------------------------------------------------------------------------------------------
Error[108]  : Illegal character (*)
                      00175  *  Below are aliases for the relay outputs located on the Robot Controller.  
Error[108]  : Illegal character (*)
                      00176  *  NOTE: The REV/FWD labels on the 2004 Full-size Robot Controllers are swapped.
Error[108]  : Illegal character (*)
                      00177  */
                      00178 #define relay1_fwd      LATEbits.LATE0
                      00179 #define relay1_rev      LATDbits.LATD0
                      00180 #define relay2_fwd      LATEbits.LATE1
                      00181 #define relay2_rev      LATDbits.LATD1
                      00182 #define relay3_fwd      LATEbits.LATE2
                      00183 #define relay3_rev      LATDbits.LATD2
                      00184 #define relay4_fwd      LATEbits.LATE3
                      00185 #define relay4_rev      LATDbits.LATD3
                      00186 #define relay5_fwd      LATEbits.LATE4
                      00187 #define relay5_rev      LATDbits.LATD4
                      00188 #define relay6_fwd      LATEbits.LATE5
                      00189 #define relay6_rev      LATDbits.LATD5
                      00190 #define relay7_fwd      LATEbits.LATE6
MPASM 03.90 Released                      INTERRUPTHANDLERS.C   4-19-2006  15:34:01         PAGE 16


LOC  OBJECT CODE     LINE SOURCE TEXT
  VALUE

                      00191 #define relay7_rev      LATDbits.LATD6
                      00192 #define relay8_fwd      LATJbits.LATJ0
                      00193 #define relay8_rev      LATDbits.LATD7
                      00194 
Error[108]  : Illegal character (/)
                      00195 /*
Error[108]  : Illegal character (*)
                      00196  *-----------------------------------------------------------------------------------------------------
Error[108]  : Illegal character (*)
                      00197  *---------- Aliases for ANALOG INPUTS connectors -----------------------------------------------------
Error[108]  : Illegal character (*)
                      00198  *-----------------------------------------------------------------------------------------------------
Error[108]  : Illegal character (*)
                      00199  *  Below are aliases for reading an analog voltage on the ANALOG INPUTS
Error[108]  : Illegal character (*)
                      00200  *  using the Get_Analog_Value() function.
Error[108]  : Illegal character (*)
                      00201  */
                      00202 #define rc_ana_in01     ADC_CH0
                      00203 #define rc_ana_in02     ADC_CH1
                      00204 #define rc_ana_in03     ADC_CH2
                      00205 #define rc_ana_in04     ADC_CH3
                      00206 #define rc_ana_in05     ADC_CH4
                      00207 #define rc_ana_in06     ADC_CH5
                      00208 #define rc_ana_in07     ADC_CH6
                      00209 #define rc_ana_in08     ADC_CH7
                      00210 #define rc_ana_in09     ADC_CH8
                      00211 #define rc_ana_in10     ADC_CH9
                      00212 #define rc_ana_in11     ADC_CH10
                      00213 #define rc_ana_in12     ADC_CH11
                      00214 #define rc_ana_in13     ADC_CH12
                      00215 #define rc_ana_in14     ADC_CH13
                      00216 #define rc_ana_in15     ADC_CH14
                      00217 #define rc_ana_in16     ADC_CH15
                      00218 
                      00219 #define SIXTEEN_ANALOG      ADC_16ANA   /* All analog */
                      00220 
Error[108]  : Illegal character (/)
                      00221 /*
Error[108]  : Illegal character (*)
                      00222  *-----------------------------------------------------------------------------------------------------
Error[108]  : Illegal character (*)
                      00223  *---------- Aliases for the ROBOT FEEDBACK LEDs ------------------------------------------------------
Error[108]  : Illegal character (*)
                      00224  *-----------------------------------------------------------------------------------------------------
Error[108]  : Illegal character (*)
                      00225  *  Below are aliases for the ROBOT FEEDBACK LEDs located on the Operator Interface.  
Error[108]  : Illegal character (*)
                      00226  */
                      00227 #define User_Mode_byte  txdata.LED_byte1.data
                      00228 
                      00229 #define Pwm1_green      txdata.LED_byte1.bitselect.bit0
                      00230 #define Pwm1_red        txdata.LED_byte1.bitselect.bit1 
MPASM 03.90 Released                      INTERRUPTHANDLERS.C   4-19-2006  15:34:01         PAGE 17


LOC  OBJECT CODE     LINE SOURCE TEXT
  VALUE

                      00231 #define Pwm2_green      txdata.LED_byte1.bitselect.bit2
                      00232 #define Pwm2_red        txdata.LED_byte1.bitselect.bit3 
                      00233 #define Relay1_red      txdata.LED_byte1.bitselect.bit4 
                      00234 #define Relay1_green    txdata.LED_byte1.bitselect.bit5
                      00235 #define Relay2_red      txdata.LED_byte1.bitselect.bit6 
                      00236 #define Relay2_green    txdata.LED_byte1.bitselect.bit7
                      00237 
                      00238 #define Switch1_LED     txdata.LED_byte2.bitselect.bit0
                      00239 #define Switch2_LED     txdata.LED_byte2.bitselect.bit1
                      00240 #define Switch3_LED     txdata.LED_byte2.bitselect.bit2
                      00241 
                      00242 #define User_Byte1      txdata.user_byte1.allbits
                      00243 #define User_Byte2      txdata.user_byte2.allbits
                      00244 #define User_Byte3      txdata.user_byte3   /* This byte is now used for breaker panel byte 3 */
                      00245 #define User_Byte4      txdata.user_byte4   /* This byte is now used for breaker panel byte 4 */
                      00246 #define User_Byte5      txdata.user_byte5   /* This byte is now used for breaker panel byte 5 */
                      00247 #define User_Byte6      txdata.user_byte6   /* This byte is now used for breaker panel byte 6 */
                      00248 
Error[108]  : Illegal character (/)
                      00249 /*
Error[108]  : Illegal character (*)
                      00250  *-------------------------------------------------------------------------------
Error[108]  : Illegal character (*)
                      00251  *---------- Aliases for CCP pins (PWM OUTPUTS 13-16 connectors) ----------------
Error[108]  : Illegal character (*)
                      00252  *-------------------------------------------------------------------------------
Error[108]  : Illegal character (*)
                      00253  *  Below are aliases for the four PWM OUTPUT pins which can be configured for 
Error[108]  : Illegal character (*)
                      00254  *  use as digital outputs by setting them to USER_CCP type.  
Error[108]  : Illegal character (*)
                      00255  *  They are CCP pins with special Compare and PWM features as detailed in the 
Error[108]  : Illegal character (*)
                      00256  *  PIC18FXX20 Data Sheet on page 149.  They have output buffers which make it 
Error[108]  : Illegal character (*)
                      00257  *  impossible to use them as inputs, so they cannot be used in Capture mode.
Error[108]  : Illegal character (*)
                      00258  *
Error[108]  : Illegal character (*)
                      00259  *   The pin mapping is as follows:
Error[108]  : Illegal character (*)
                      00260  *   PWM OUT 13 -> CCP2
Error[108]  : Illegal character (*)
                      00261  *   PWM OUT 14 -> CCP3
Error[108]  : Illegal character (*)
                      00262  *   PWM OUT 15 -> CCP4
Error[108]  : Illegal character (*)
                      00263  *   PWM OUT 16 -> CCP5 
Error[108]  : Illegal character (*)
                      00264  */
Error[108]  : Illegal character (/)
                      00265 /* To set the direction (INPUT or OUTPUT) of the pins you use these aliases. */
                      00266 #define IO_CCP2         TRISEbits.TRISE7
MPASM 03.90 Released                      INTERRUPTHANDLERS.C   4-19-2006  15:34:01         PAGE 18


LOC  OBJECT CODE     LINE SOURCE TEXT
  VALUE

                      00267 #define IO_CCP3         TRISGbits.TRISG0
                      00268 #define IO_CCP4         TRISGbits.TRISG3
                      00269 #define IO_CCP5         TRISGbits.TRISG4
                      00270 
Error[108]  : Illegal character (/)
                      00271 /* When using them as inputs you read the values with these aliases. */
                      00272 #define IN_CCP2         PORTEbits.RE7
                      00273 #define IN_CCP3         PORTGbits.RG0
                      00274 #define IN_CCP4         PORTGbits.RG3
                      00275 #define IN_CCP5         PORTGbits.RG4
                      00276 
Error[108]  : Illegal character (/)
                      00277 /* When using them as outputs you drive a value with these aliases. */
                      00278 #define OUT_CCP2        LATEbits.LATE7
                      00279 #define OUT_CCP3        LATGbits.LATG0
                      00280 #define OUT_CCP4        LATGbits.LATG3
                      00281 #define OUT_CCP5        LATGbits.LATG4
                      00282 
Error[108]  : Illegal character (/)
                      00283 /*
Error[108]  : Illegal character (*)
                      00284  *-------------------------------------------------------------------------------
Error[108]  : Illegal character (*)
                      00285  *---------- Aliases for TTL connectors (serial port 2) -------------------------
Error[108]  : Illegal character (*)
                      00286  *-------------------------------------------------------------------------------
Error[108]  : Illegal character (*)
                      00287  *  Below are aliases for the second serial port (USART2) pins labeled TTL.
Error[108]  : Illegal character (*)
                      00288  */
                      00289 #define usart2_TX       LATGbits.LATG1
                      00290 #define usart2_RX       PORTGbits.RG2
                      00291 
Error[108]  : Illegal character (/)
                      00292 /*
Error[108]  : Illegal character (*)
                      00293  *-----------------------------------------------------------------------------------------------------
Error[108]  : Illegal character (*)
                      00294  *---------- Aliases for Battery Voltage bytes --------------------------------------------------------
Error[108]  : Illegal character (*)
                      00295  *-----------------------------------------------------------------------------------------------------
Error[108]  : Illegal character (*)
                      00296  * Formula to calculate voltage in volts: 
Error[108]  : Illegal character (*)
                      00297  *     current_voltage = battery_voltage * 0.038 + 0.05; 
Error[108]  : Illegal character (*)
                      00298  */
                      00299 
                      00300 #define battery_voltage     rxdata.rc_main_batt*15.64/256
                      00301 #define backup_voltage      rxdata.rc_backup_batt*15.64/256
                      00302 
Error[108]  : Illegal character (/)
                      00303 /*
MPASM 03.90 Released                      INTERRUPTHANDLERS.C   4-19-2006  15:34:01         PAGE 19


LOC  OBJECT CODE     LINE SOURCE TEXT
  VALUE

Error[108]  : Illegal character (*)
                      00304  *-----------------------------------------------------------------------------------------------------
Error[108]  : Illegal character (*)
                      00305  *---------- Aliases for User Modes  ------------------------------------------------------------------
Error[108]  : Illegal character (*)
                      00306  *-----------------------------------------------------------------------------------------------------
Error[108]  : Illegal character (*)
                      00307  * These bits tell you what mode your robot is currently in.
Error[108]  : Illegal character (*)
                      00308  *     1 = in <X> mode; 0 = not in <X> mode
Error[108]  : Illegal character (*)
                      00309  */
                      00310 
                      00311 #define user_display_mode   rxdata.rc_mode_byte.mode.user_display
                      00312 #define autonomous_mode     rxdata.rc_mode_byte.mode.autonomous
                      00313 #define disabled_mode       rxdata.rc_mode_byte.mode.disabled
                      00314 
                      00315 #endif
                      00316 
Error[108]  : Illegal character (/)
                      00317 /*---------------------------------------------------------------------------------------------------*/
Error[108]  : Illegal character (/)
                      00318 /*---------------------------------------------------------------------------------------------------*/
Error[108]  : Illegal character (/)
                      00319 /*---------------------------------------------------------------------------------------------------*/
                      00004 #include "interruptHandlers.h"
                      00001 #ifndef _interruptHandlers_h
                      00002 #define _interruptHandlers_h
                      00003 
                      00004 
Error[105]  : Cannot open file (Include File "timers.h" not found)
                      00005 #include <timers.h>
                      00006 
Error[122]  : Illegal opcode (Initialize_timer)
                      00007 void Initialize_timer(void);;
Error[122]  : Illegal opcode (Timer_0_Int_Handler)
                      00008 void Timer_0_Int_Handler(void);;
Error[122]  : Illegal opcode (get_encoder_1_width)
                      00009 long get_encoder_1_width (void);;
                      00010 
                      00011 
                      00012 #define ENABLE_CIM_RIGHT_ENCODER
                      00013 #define ENABLE_CIM_LEFT_ENCODER
                      00014 #define ENABLE_ENCODER_3
                      00015 #define ENABLE_ENCODER_4
                      00016 #define ENABLE_ENCODER_5
                      00017 #define ENABLE_ENCODER_6
                      00018 
Error[108]  : Illegal character (/)
                      00019 // Digital input pin(s) assigned to the encoder's phase-B output. Make sure 
Error[108]  : Illegal character (/)
                      00020 // this pin is configured as an input in user_routines.c/User_Initialization().
                      00021 #define CIM_RIGHT_ENCODER_DIR   rc_dig_in11
MPASM 03.90 Released                      INTERRUPTHANDLERS.C   4-19-2006  15:34:01         PAGE 20


LOC  OBJECT CODE     LINE SOURCE TEXT
  VALUE

                      00022 #define CIM_LEFT_ENCODER_DIR    rc_dig_in13
                      00023 #define ENCODER_3_PHASE_B_PIN   rc_dig_in13
                      00024 #define ENCODER_4_PHASE_B_PIN   rc_dig_in14
                      00025 #define ENCODER_5_PHASE_B_PIN   rc_dig_in15
                      00026 #define ENCODER_6_PHASE_B_PIN   rc_dig_in16
                      00027 
Error[108]  : Illegal character (/)
                      00028 // Change the sign of these if you need to flip the way the encoders count. 
Error[108]  : Illegal character (/)
                      00029 // For instance, if a given encoder count increases in the positive direction 
Error[108]  : Illegal character (/)
                      00030 // when rotating counter-clockwise, but you want it to count in the negative 
Error[108]  : Illegal character (/)
                      00031 // direction when rotating in the counter-clockwise direction, flip the sign 
Error[108]  : Illegal character (/)
                      00032 // (i.e., change 1 to -1) and it'll work the way you need it to.
                      00033 #define ENCODER_1_TICK_DELTA    1
                      00034 #define ENCODER_2_TICK_DELTA    1
                      00035 #define ENCODER_3_TICK_DELTA    1
                      00036 #define ENCODER_4_TICK_DELTA    1
                      00037 #define ENCODER_5_TICK_DELTA    1
                      00038 #define ENCODER_6_TICK_DELTA    1
                      00039 
                      00040 
Error[108]  : Illegal character (/)
                      00041 // #define ENABLE_ENCODER_3_6 if encoder 3, 4, 5 or 6 is enabled
                      00042 #ifdef ENABLE_ENCODER_3
                      00043 #ifndef ENABLE_ENCODER_3_6
                      00044 #define ENABLE_ENCODER_3_6
                      00045 #endif
                      00046 #endif
                      00047 #ifdef ENABLE_ENCODER_4
                      00048 #ifndef ENABLE_ENCODER_3_6
                      00049 #define ENABLE_ENCODER_3_6
                      00050 #endif
                      00051 #endif
                      00052 #ifdef ENABLE_ENCODER_5
                      00053 #ifndef ENABLE_ENCODER_3_6
                      00054 #define ENABLE_ENCODER_3_6
                      00055 #endif
                      00056 #endif
                      00057 #ifdef ENABLE_ENCODER_6
                      00058 #ifndef ENABLE_ENCODER_3_6
                      00059 #define ENABLE_ENCODER_3_6
                      00060 #endif
                      00061 #endif
                      00062 
Warning[205]: Found directive in column 1. (extern)
Error[121]  : Illegal label (unsigned char Old_Port_B)
  0000                00063 extern unsigned char Old_Port_B;
                      00064 
Error[108]  : Illegal character (/)
                      00065 // function prototypes
MPASM 03.90 Released                      INTERRUPTHANDLERS.C   4-19-2006  15:34:01         PAGE 21


LOC  OBJECT CODE     LINE SOURCE TEXT
  VALUE

Error[122]  : Illegal opcode (Initialize_Encoders)
                      00066 void Initialize_Encoders(void);;
                      00067 
                      00068 
                      00069 #ifdef ENABLE_CIM_RIGHT_ENCODER
Error[122]  : Illegal opcode (Get_Encoder_1_Count)
                      00070 long Get_Encoder_1_Count(void);;
Error[122]  : Illegal opcode (Reset_Encoder_1_Count)
                      00071 void Reset_Encoder_1_Count(void);;
Error[122]  : Illegal opcode (Encoder_1_Int_Handler)
                      00072 void Encoder_1_Int_Handler(void);;
                      00073 #endif
                      00074 
                      00075 #ifdef ENABLE_CIM_LEFT_ENCODER
Error[122]  : Illegal opcode (Get_Encoder_2_Count)
                      00076 long Get_Encoder_2_Count(void);;
Error[122]  : Illegal opcode (Reset_Encoder_2_Count)
                      00077 void Reset_Encoder_2_Count(void);;
Error[122]  : Illegal opcode (Encoder_2_Int_Handler)
                      00078 void Encoder_2_Int_Handler(void);;
                      00079 #endif
                      00080 
                      00081 #ifdef ENABLE_ENCODER_3
Error[122]  : Illegal opcode (Get_Encoder_3_Count)
                      00082 long Get_Encoder_3_Count(void);;
Error[122]  : Illegal opcode (Reset_Encoder_3_Count)
                      00083 void Reset_Encoder_3_Count(void);;
Error[122]  : Illegal opcode (Encoder_3_Int_Handler)
                      00084 void Encoder_3_Int_Handler(unsigned char);;
                      00085 #endif
                      00086 
                      00087 #ifdef ENABLE_ENCODER_4
Error[122]  : Illegal opcode (Get_Encoder_4_Count)
                      00088 long Get_Encoder_4_Count(void);;
Error[122]  : Illegal opcode (Reset_Encoder_4_Count)
                      00089 void Reset_Encoder_4_Count(void);;
Error[122]  : Illegal opcode (Encoder_4_Int_Handler)
                      00090 void Encoder_4_Int_Handler(unsigned char);;
                      00091 #endif
                      00092 
                      00093 #ifdef ENABLE_ENCODER_5
Error[122]  : Illegal opcode (Get_Encoder_5_Count)
                      00094 long Get_Encoder_5_Count(void);;
Error[122]  : Illegal opcode (Reset_Encoder_5_Count)
                      00095 void Reset_Encoder_5_Count(void);;
Error[122]  : Illegal opcode (Encoder_5_Int_Handler)
                      00096 void Encoder_5_Int_Handler(unsigned char);;
                      00097 #endif
                      00098 
                      00099 #ifdef ENABLE_ENCODER_6
Error[122]  : Illegal opcode (Get_Encoder_6_Count)
                      00100 long Get_Encoder_6_Count(void);;
Error[122]  : Illegal opcode (Reset_Encoder_6_Count)
MPASM 03.90 Released                      INTERRUPTHANDLERS.C   4-19-2006  15:34:01         PAGE 22


LOC  OBJECT CODE     LINE SOURCE TEXT
  VALUE

                      00101 void Reset_Encoder_6_Count(void);;
Error[122]  : Illegal opcode (Encoder_6_Int_Handler)
                      00102 void Encoder_6_Int_Handler(unsigned char);;
                      00103 #endif
                      00104 
                      00105 
Warning[211]: Extraneous arguments on the line.
                      00106 #endif  //_interruptHandlers_h
                      00005 #include "utilities.h"
Error[108]  : Illegal character (/)
                      00001 /********************************************************************************
Error[108]  : Illegal character (*)
                      00002 * FILE NAME: utilities.h <FRC VERSION>
                      00003 
Error[108]  : Illegal character (*)
                      00004 * DESCRIPTION: 
Error[108]  : Illegal character (*)
                      00005 *  This file ...
Error[108]  : Illegal character (*)
                      00006 *
Error[108]  : Illegal character (*)
                      00007 ********************************************************************************/
                      00008 #ifndef utilities_h_
                      00009 #define utilities_h_
                      00010 
                      00011 
Error[108]  : Illegal character ({)
                      00012 enum { kRight, kLeft };;
Error[108]  : Illegal character ({)
                      00013 enum { kLowGear, kHighGear };;
                      00014 
                      00015 #define kNeutral 127u
                      00016 
                      00017 
                      00018 #define kPI     3.14159
                      00019 #define kAxleLengthInch 28
                      00020 #define kEncoderTicksPerFt      81.49
                      00021 #define kEncoderTicksPerFt256   kEncoderTicksPerFt*256L //use care to wrap in '()' when dividing!
                      00022 
Error[108]  : Illegal character (/)
                      00023         //about 3.1 ticks per degree -- very sensitive!
                      00024 #define kTurnTicksPerDegree (long)kAxleLengthInch*128L*2/(360*6)
                      00025 #define kTurnTicksPerDegree256 (long)(kAxleLengthInch*256*128L*2/(360*6)
                      00026 
                      00027 
Error[122]  : Illegal opcode (testArea)
                      00028 void testArea(void);;
                      00029 
Error[108]  : Illegal character (/)
                      00030 //mSign(A) returns the sign +/-1 or zero of argument 'A'
                      00031 #define mSign(A) ((A)>0 ? 1 : ((A)<0 ? -1:0))
                      00032 #define mAbsolute(A) ((A)<0?-(A):(A))
                      00033 #define mAbsDiff(A,B) ((A)>(B)?((A)-(B)):((B)-(A)))
MPASM 03.90 Released                      INTERRUPTHANDLERS.C   4-19-2006  15:34:01         PAGE 23


LOC  OBJECT CODE     LINE SOURCE TEXT
  VALUE

                      00034 #define mModPowerOf2(AAA,pwr2) ((AAA > 0) ? ((1L<<pwr2)-1)&(AAA) : -(((1L<<pwr2)-1)&(-(AAA))))
                      00035 #define mIsPowerOf2(AAA) (0==(((AAA)-1)&(AAA)))
                      00036 
                      00037 #define mLimitRange(number,low,high) do {\
Error[113]  : Symbol not previously defined (number)
Error[128]  : Missing argument(s)
                      00038         if ((number)>(high)) (number)=(high);\;\
                      00039         else if ((number)<(low)) (number)=(low); ; } while (0) 
                      00040 
                      00041 #define mDivideByPowerOf2(AAA,pwr2) ((AAA)>=0 ? ((AAA)>>(pwr2)) : -(-(AAA)>>(pwr2)))
                      00042 #define mDivideBy2(AAA) mDivideByPowerOf2(AAA,1)
                      00043 #define mDivideBy4(AAA) mDivideByPowerOf2(AAA,2)
                      00044 #define mDivideBy8(AAA) mDivideByPowerOf2(AAA,3)
                      00045 #define mDivideBy16(AAA) mDivideByPowerOf2(AAA,4)
                      00046 #define mDivideBy32(AAA) mDivideByPowerOf2(AAA,5)
                      00047 #define mDivideBy64(AAA) mDivideByPowerOf2(AAA,6)
                      00048 #define mDivideBy128(AAA) mDivideByPowerOf2(AAA,7)
                      00049 #define mDivideBy256(AAA) mDivideByPowerOf2(AAA,8)
                      00050 
Error[122]  : Illegal opcode (struct)
                      00051 typedef struct { long left, right; } LeftRightPair;
                      00052 
Error[150]  : Labels must be defined in a code or data section when making an object file
000000                00053 typedef
Warning[207]: Found label after column 1. (union)
Error[108]  : Illegal character ({)
000000                00054         union {
Warning[207]: Found label after column 1. (unsigned)
Error[122]  : Illegal opcode (long)
000000                00055                 unsigned long ts;
Warning[207]: Found label after column 1. (struct)
Error[108]  : Illegal character ({)
000000                00056                 struct {
Warning[207]: Found label after column 1. (unsigned)
Error[122]  : Illegal opcode (int)
000000                00057                         unsigned int tsL;
Warning[207]: Found label after column 1. (unsigned)
Error[122]  : Illegal opcode (int)
000000                00058                         unsigned int tsH;
Error[108]  : Illegal character (})
000000                00059                 };;
Error[108]  : Illegal character (})
000000                00060 } timestamp;
                      00061 
                      00062 
Error[122]  : Illegal opcode (struct)
                      00063 typedef struct {
Warning[207]: Found label after column 1. (timestamp)
Error[122]  : Illegal opcode (t0)
                      00064         timestamp t0;   //most recent
Warning[207]: Found label after column 1. (timestamp)
Error[122]  : Illegal opcode (t1)
                      00065         timestamp t1;   //one step earlier
MPASM 03.90 Released                      INTERRUPTHANDLERS.C   4-19-2006  15:34:01         PAGE 24


LOC  OBJECT CODE     LINE SOURCE TEXT
  VALUE

                      00066 
Warning[207]: Found label after column 1. (unsigned)
Error[122]  : Illegal opcode (newdata)
                      00067         unsigned newdata:1;
Warning[207]: Found label after column 1. (unsigned)
Error[122]  : Illegal opcode (timerIntOccured)
                      00068         unsigned timerIntOccured:1; 
                      00069 
Error[108]  : Illegal character (/)
                      00070 //      timestamp d0;   //  (t0-t2) /2/64
Error[108]  : Illegal character (/)
                      00071 //      timestamp d1;   //  (t1-t3)     /2/64
Error[108]  : Illegal character (})
                      00072 } wheelSensor;
                      00073 
Warning[205]: Found directive in column 1. (extern)
Error[121]  : Illegal label (volatile wheelSensor shooterLeft)
  0000                00074 extern volatile wheelSensor shooterLeft;
Warning[205]: Found directive in column 1. (extern)
Error[121]  : Illegal label (volatile wheelSensor shooterRigh)
  0000                00075 extern volatile wheelSensor shooterRight;
                      00076 
                      00077 
Error[108]  : Illegal character (/)
                      00078 //short long's are 24 bit
Error[122]  : Illegal opcode (struct)
                      00079 typedef struct {
Warning[207]: Found label after column 1. (volatile)
Error[122]  : Illegal opcode (short)
                      00080         volatile short long posNow;             //instantaneous position updated via interrupt
Warning[207]: Found label after column 1. (short)
Error[122]  : Illegal opcode (long)
                      00081         short long position;                    //copy of positon at beginning of loop
Warning[207]: Found label after column 1. (short)
Error[122]  : Illegal opcode (long)
                      00082         short long oldPosition;
Warning[207]: Found label after column 1. (short)
Error[122]  : Illegal opcode (long)
                      00083         short long projectedPos;        //where we expect to be at next tick given current Vel.
Warning[207]: Found label after column 1. (int)
Error[122]  : Illegal opcode (velocity)
                      00084         int velocity;
Warning[207]: Found label after column 1. (int)
Error[122]  : Illegal opcode (oldVelocity)
                      00085         int oldVelocity;
                      00086 
Warning[207]: Found label after column 1. (char)
Error[122]  : Illegal opcode (direction)
                      00087         char direction; //direction at last interrupt 0 is fwd, 1 is rev
Error[108]  : Illegal character (/)
                      00088                 //in keeping with sign(velocity)
                      00089 
Warning[207]: Found label after column 1. (timestamp)
MPASM 03.90 Released                      INTERRUPTHANDLERS.C   4-19-2006  15:34:01         PAGE 25


LOC  OBJECT CODE     LINE SOURCE TEXT
  VALUE

Error[122]  : Illegal opcode (t0)
                      00090         timestamp t0;   //most recent
Warning[207]: Found label after column 1. (timestamp)
Error[122]  : Illegal opcode (t1)
                      00091         timestamp t1;   //one step earlier
Warning[207]: Found label after column 1. (timestamp)
Error[122]  : Illegal opcode (t2)
                      00092         timestamp t2;   //two steps earlier
                      00093         
Warning[207]: Found label after column 1. (timestamp)
Error[122]  : Illegal opcode (d0)
                      00094         timestamp d0;   //  (t0-t2) /2/64
Error[108]  : Illegal character (/)
                      00095 //      timestamp d1;   //  (t1-t3)     /2/64
Error[108]  : Illegal character (})
                      00096 } encoder;
                      00097 
Warning[205]: Found directive in column 1. (extern)
Error[121]  : Illegal label (encoder EncoderRight)
  0000                00098 extern encoder EncoderRight, EncoderLeft;
Error[108]  : Illegal character (/)
  0000                00099 //allocated in user_routines.c
                      00100 
Error[108]  : Illegal character (/)
                      00101 //38.1470        0.9961
Warning[205]: Found directive in column 1. (extern)
Error[121]  : Illegal label (volatile unsigned int Timer_High)
  0000                00102 extern volatile unsigned int Timer_High_Count;  //high word of timer (should track packet count)
                      00103 
                      00104 
Error[122]  : Illegal opcode (Clock)
                      00105 struct Clock {                          //timer data
Warning[207]: Found label after column 1. (unsigned)
Error[122]  : Illegal opcode (int)
                      00106         unsigned int cycle;             //      increments at 38.1470 Hz (10MHz/2^18) rollover ~1718sec
Warning[207]: Found label after column 1. (unsigned)
Error[122]  : Illegal opcode (char)
                      00107         unsigned char cycle38;  //as above; rollover every 38
Warning[207]: Found label after column 1. (unsigned)
Error[122]  : Illegal opcode (int)
                      00108         unsigned int secondz;   //one secondz = 0.9961 seconds
Error[108]  : Illegal character (})
                      00109 } extern volatile gClock; //allocated in interrupts.c
                      00110 
Error[108]  : Illegal character (/)
                      00111 //use to control printf's for debugging
Error[122]  : Illegal opcode (struct)
                      00112 typedef struct {                        //loopcount data (similar to above)
Warning[207]: Found label after column 1. (unsigned)
Error[122]  : Illegal opcode (int)
                      00113                 unsigned int count;             //total cycles; rolls over every ~1718sec
Warning[207]: Found label after column 1. (unsigned)
Error[122]  : Illegal opcode (char)
MPASM 03.90 Released                      INTERRUPTHANDLERS.C   4-19-2006  15:34:01         PAGE 26


LOC  OBJECT CODE     LINE SOURCE TEXT
  VALUE

                      00114                 unsigned char count38;  //rolls over every 38;
Warning[207]: Found label after column 1. (unsigned)
Error[122]  : Illegal opcode (char)
                      00115                 unsigned char secondz;  //rolls over every 256 seconds (4+ minutes)
Warning[207]: Found label after column 1. (unsigned)
Error[122]  : Illegal opcode (onSecond)
                      00116                 unsigned onSecond  :1;
Error[108]  : Illegal character (})
                      00117 } SlowLoopTiming;
Warning[205]: Found directive in column 1. (extern)
Error[121]  : Illegal label (SlowLoopTiming gLoop)
  0000                00118 extern SlowLoopTiming gLoop;    //alloc. in LRTUtilities.c
                      00119 
                      00120 
Error[122]  : Illegal opcode (LimitRange)
                      00121 int LimitRange(long a, int low, int high);;
Error[122]  : Illegal opcode (isWithinRange)
                      00122 char isWithinRange(int a, int b, int range);;
                      00123 
Error[122]  : Illegal opcode (char)
                      00124 unsigned char removeESCDeadband(int pwm);;
Error[122]  : Illegal opcode (addDeadband)
                      00125 char addDeadband(unsigned char pwm);;
Error[108]  : Illegal character (/)
                      00126 //unsigned char addLargeDeadband(unsigned char pwm);;
Error[122]  : Illegal opcode (calibrateInput)
                      00127 void calibrateInput(unsigned char *in, unsigned char lowValue);;
Error[122]  : Illegal opcode (RemoveAllPWMDeadbands)
                      00128 void RemoveAllPWMDeadbands(void);;
Error[122]  : Illegal opcode (AllStop)
                      00129 void AllStop(void);;
                      00130 
Error[122]  : Illegal opcode (UpdateTimers)
                      00131 void UpdateTimers(void);;
                      00132 
Error[122]  : Illegal opcode (PrintTime)
                      00133 void PrintTime(void);;
Error[122]  : Illegal opcode (PrintPWMs)
                      00134 void PrintPWMs(void);;
                      00135 
                      00136 
                      00137 
Error[108]  : Illegal character (/)
                      00138 //******** Macros ****************
                      00139 
                      00140 
                      00141 
                      00142 
Warning[211]: Extraneous arguments on the line.
                      00143 #endif //utilities_h_   NO CODE BELOW THIS LINE
Error[105]  : Cannot open file (Include File "stdio.h" not found)
                      00006 #include <stdio.h>
                      00007 
MPASM 03.90 Released                      INTERRUPTHANDLERS.C   4-19-2006  15:34:01         PAGE 27


LOC  OBJECT CODE     LINE SOURCE TEXT
  VALUE

                      00008 
                      00009 
                      00010 #ifdef ENABLE_CIM_RIGHT_ENCODER
Error[122]  : Illegal opcode (long)
                      00011 volatile long Encoder_1_Count = 0;
                      00012 #endif
                      00013 
                      00014 #ifdef ENABLE_CIM_LEFT_ENCODER
Error[122]  : Illegal opcode (long)
                      00015 volatile long Encoder_2_Count = 0;
                      00016 #endif
                      00017 
                      00018 #ifdef ENABLE_ENCODER_3
Error[122]  : Illegal opcode (char)
                      00019 unsigned char Encoder_3_State;
Error[122]  : Illegal opcode (long)
                      00020 volatile long Encoder_3_Count = 0;
                      00021 #endif
                      00022 
                      00023 #ifdef ENABLE_ENCODER_4
Error[122]  : Illegal opcode (char)
                      00024 unsigned char Encoder_4_State;
Error[122]  : Illegal opcode (long)
                      00025 volatile long Encoder_4_Count = 0;
                      00026 #endif
                      00027 
                      00028 #ifdef ENABLE_ENCODER_5
Error[122]  : Illegal opcode (char)
                      00029 unsigned char Encoder_5_State;
Error[122]  : Illegal opcode (long)
                      00030 volatile long Encoder_5_Count = 0;
                      00031 #endif
                      00032 
                      00033 #ifdef ENABLE_ENCODER_6
Error[122]  : Illegal opcode (char)
                      00034 unsigned char Encoder_6_State;
Error[122]  : Illegal opcode (long)
                      00035 volatile long Encoder_6_Count = 0;
                      00036 #endif
Error[108]  : Illegal character (/)
                      00037 //timer related variables
                      00038 
                      00039 
Error[122]  : Illegal opcode (unsigned)
                      00040 volatile unsigned int Timer_High_Count = 0;
Error[108]  : Illegal character (/)
                      00041 //volatile unsigned int arrayl[3] = {0,0,0};;
Error[108]  : Illegal character (/)
                      00042 //volatile unsigned int arrayh[3] = {0,0,0};;
Error[108]  : Illegal character (/)
                      00043 //volatile unsigned int intr_hit = 0;
                      00044 
Error[122]  : Illegal opcode (wheelSensor)
MPASM 03.90 Released                      INTERRUPTHANDLERS.C   4-19-2006  15:34:01         PAGE 28


LOC  OBJECT CODE     LINE SOURCE TEXT
  VALUE

                      00045 volatile wheelSensor shooterLeft ={0,0,0};;
Error[122]  : Illegal opcode (wheelSensor)
                      00046 volatile wheelSensor shooterRight={0,0,0};;
                      00047 
Error[122]  : Illegal opcode (unsigned)
                      00048 volatile unsigned int t0_int_handler = 0;
                      00049 
                      00050 
Error[108]  : Illegal character (/)
                      00051 // So that we'll know which interrupt pin changed state the next time through,
Error[108]  : Illegal character (/)
                      00052 // the state of port b is saved in this variable each time the interrupt
Error[108]  : Illegal character (/)
                      00053 // handler for interrupts 3 through 6 is called. This variable should be
Error[108]  : Illegal character (/)
                      00054 // initialized to the current state of port b just before enabling interrupts
Error[108]  : Illegal character (/)
                      00055 // 3 through 6.
Error[122]  : Illegal opcode (char)
                      00056 unsigned char Old_Port_B = 0xFF;
                      00057 
Error[108]  : Illegal character (/)
                      00058 /*******************************************************************************
Error[108]  : Illegal character (*)
                      00059 *       FUNCTION:               Initialize_Encoders()
Error[108]  : Illegal character (*)
                      00060 *******************************************************************************/
Error[122]  : Illegal opcode (Initialize_Encoders)
                      00061 void Initialize_Encoders(void)  
Error[108]  : Illegal character ({)
                      00062 {
Error[108]  : Illegal character (/)
                      00063         // if enabled in encoder.h, configure encoder 1's interrupt input
                      00064         #ifdef ENABLE_CIM_RIGHT_ENCODER
Warning[207]: Found label after column 1. (TRISBbits.TRISB2)
  00000001            00065                 TRISBbits.TRISB2 = 1;           // Configure interrupt 1 as an input
Warning[207]: Found label after column 1. (INTCON3bits.INT2IP)
  00000000            00066                 INTCON3bits.INT2IP = 0;         // interrupt 1 is low priority
Warning[207]: Found label after column 1. (INTCON2bits.INTEDG2)
  00000001            00067                 INTCON2bits.INTEDG2 = 1;        // trigger on rising edge
Warning[207]: Found label after column 1. (INTCON3bits.INT2IF)
  00000000            00068                 INTCON3bits.INT2IF = 0;         // clear the interrupt flag before enabling
Warning[207]: Found label after column 1. (INTCON3bits.INT2IE)
  00000001            00069                 INTCON3bits.INT2IE = 1;         // enable interrupt 1
                      00070         #endif
                      00071 
Error[108]  : Illegal character (/)
                      00072         // if enabled in encoder.h, configure encoder 2's interrupt input
                      00073         #ifdef ENABLE_CIM_LEFT_ENCODER
Warning[207]: Found label after column 1. (TRISBbits.TRISB3)
  00000001            00074                 TRISBbits.TRISB3 = 1;// Configure interrupt 2 as an input
Warning[207]: Found label after column 1. (INTCON2bits.INT3P)
  00000000            00075                 INTCON2bits.INT3P = 0;  // interrupt 2 is low priority
MPASM 03.90 Released                      INTERRUPTHANDLERS.C   4-19-2006  15:34:01         PAGE 29


LOC  OBJECT CODE     LINE SOURCE TEXT
  VALUE

Warning[207]: Found label after column 1. (INTCON2bits.INTEDG3)
  00000001            00076                 INTCON2bits.INTEDG3 = 1;                // trigger on rising edge
Warning[207]: Found label after column 1. (INTCON3bits.INT3IF)
  00000000            00077                 INTCON3bits.INT3IF = 0;// clear the interrupt flag before enabling
Warning[207]: Found label after column 1. (INTCON3bits.INT3IE)
  00000001            00078                 INTCON3bits.INT3IE = 1; // enable interrupt 2
                      00079         #endif
                      00080 
Error[108]  : Illegal character (/)
                      00081         // if enabled in encoder.h, configure the interrupt input for encoders 3-6
                      00082         #ifdef ENABLE_ENCODER_3_6
Warning[207]: Found label after column 1. (TRISBbits.TRISB4)
  00000001            00083                 TRISBbits.TRISB4 = 1;   //Configure interrupt 3-6 as  inputs
Warning[207]: Found label after column 1. (TRISBbits.TRISB5)
  00000001            00084                 TRISBbits.TRISB5 = 1;
Warning[207]: Found label after column 1. (TRISBbits.TRISB6)
  00000001            00085                 TRISBbits.TRISB6 = 1;
Warning[207]: Found label after column 1. (TRISBbits.TRISB7)
  00000001            00086                 TRISBbits.TRISB7 = 1;
Warning[207]: Found label after column 1. (INTCON2bits.RBIP)
  00000000            00087                 INTCON2bits.RBIP = 0;   // interrupts 3 through 6 are low priority
                      00088         
Error[108]  : Illegal character (/)
                      00089                 // before enabling interrupts 3-6, take a snapshot of port b
Warning[207]: Found label after column 1. (Old_Port_B)
Error[113]  : Symbol not previously defined (PORTB)
  00000000            00090                 Old_Port_B = PORTB;
                      00091 
Warning[207]: Found label after column 1. (INTCONbits.RBIF)
  00000000            00092                 INTCONbits.RBIF = 0;    // clear the interrupt flag before enabling
Warning[207]: Found label after column 1. (INTCONbits.RBIE)
  00000001            00093                 INTCONbits.RBIE = 1;    // enable interrupts 3 through 6
                      00094         #endif
Error[108]  : Illegal character (})
                      00095 }
Error[108]  : Illegal character (/)
                      00096 //*****************************************************************************
Error[108]  : Illegal character (/)
                      00097 //*****************************************************************************
                      00098 
                      00099 
                      00100 
                      00101 
                      00102 
                      00103 
                      00104 #ifdef ENABLE_CIM_RIGHT_ENCODER
Error[108]  : Illegal character (/)
                      00105 //*****************************************************************************
Error[108]  : Illegal character (/)
                      00106 //*****************************************************************************
Error[122]  : Illegal opcode (Get_Encoder_1_Count)
                      00107 long Get_Encoder_1_Count(void)
Error[108]  : Illegal character ({)
MPASM 03.90 Released                      INTERRUPTHANDLERS.C   4-19-2006  15:34:01         PAGE 30


LOC  OBJECT CODE     LINE SOURCE TEXT
  VALUE

                      00108 {
Warning[207]: Found label after column 1. (long)
Error[122]  : Illegal opcode (count)
                      00109         long count;
Warning[207]: Found label after column 1. (INTCON3bits.INT2IE)
  00000000            00110         INTCON3bits.INT2IE = 0;         // turn encoder's interrupt off.
Warning[207]: Found label after column 1. (count)
Error[113]  : Symbol not previously defined (Encoder_1_Count)
  00000000            00111         count = Encoder_1_Count;        
Warning[207]: Found label after column 1. (INTCON3bits.INT2IE)
  00000001            00112         INTCON3bits.INT2IE = 1;         // turn encoder's interrupt back on.
Error[152]  : Executable code and data must be defined in an appropriate section
000000                00113         return(count);;
Error[108]  : Illegal character (})
000000                00114 }
Error[108]  : Illegal character (/)
000000                00115 //*****************************************************************************
Error[122]  : Illegal opcode (Reset_Encoder_1_Count)
000000                00116 void Reset_Encoder_1_Count(void)
Error[108]  : Illegal character ({)
000000                00117 {
Warning[207]: Found label after column 1. (INTCON3bits.INT2IE)
  00000000            00118         INTCON3bits.INT2IE = 0; //diable interrupt
Warning[207]: Found label after column 1. (Encoder_1_Count)
  00000000            00119         Encoder_1_Count = 0;
Warning[207]: Found label after column 1. (INTCON3bits.INT2IE)
  00000001            00120         INTCON3bits.INT2IE = 1; //enable interrupt
Error[108]  : Illegal character (})
  00000001            00121 }
Error[108]  : Illegal character (/)
  00000001            00122 /*******************************************************************************
Error[108]  : Illegal character (*)
  00000001            00123 *       FUNCTION:               Encoder_1_Int_Handler()
Error[108]  : Illegal character (*)
  00000001            00124 *******************************************************************************/
Error[122]  : Illegal opcode (Encoder_1_Int_Handler)
  00000001            00125 void Encoder_1_Int_Handler(void)
Error[108]  : Illegal character ({)
  00000001            00126 {
Error[108]  : Illegal character (/)
  00000001            00127         // Encoder 1's phase a signal just transitioned from zero to one, causing 
Error[108]  : Illegal character (/)
  00000001            00128         // this interrupt service routine to be called. We know that the encoder 
Error[108]  : Illegal character (/)
  00000001            00129         // just rotated one count or "tick" so now check the logical state of the 
Error[108]  : Illegal character (/)
  00000001            00130         // phase b signal to determine which way the the encoder shaft rotated.
Error[113]  : Symbol not previously defined (PORTJbits.RJ1)
                      00131         if(CIM_RIGHT_ENCODER_DIR == 0)
Warning[207]: Found label after column 1. (Encoder_1_Count)
  FFFFFFFF            00132                 Encoder_1_Count--;;
                      00133         else
                      00134                 Encoder_1_Count++;;
MPASM 03.90 Released                      INTERRUPTHANDLERS.C   4-19-2006  15:34:01         PAGE 31


LOC  OBJECT CODE     LINE SOURCE TEXT
  VALUE

                      00135         
                      00136         shooterLeft.t1.ts = shooterLeft.t0.ts;  //save last timestamp
                      00137         
                      00138         //Read Timer
                      00139         ((char *) &shooterLeft.t0.tsL)[0] = TMR0L;      //must read low byte first
                      00140         ((char *) &shooterLeft.t0.tsL)[1] = TMR0H;      //read in high byte
                      00141         shooterLeft.t0.tsH = Timer_High_Count;  //should watch for rollovers
                      00142 
                      00143         shooterLeft.timerIntOccured = INTCONbits.TMR0IF;
                      00144 
                      00145         shooterLeft.newdata=1;
                      00146 }
                      00147 //*****************************************************************************
                      00148 //*****************************************************************************
                      00149 #endif  //ENABLE_CIM_RIGHT_ENCODER
                      00150 
                      00151 
                      00152 
                      00153 #ifdef ENABLE_CIM_LEFT_ENCODER
Error[108]  : Illegal character (/)
                      00154 //*****************************************************************************
Error[108]  : Illegal character (/)
                      00155 //*****************************************************************************
Error[122]  : Illegal opcode (Get_Encoder_2_Count)
                      00156 long Get_Encoder_2_Count(void)
Error[108]  : Illegal character ({)
                      00157 {
Warning[207]: Found label after column 1. (long)
Error[122]  : Illegal opcode (count)
                      00158         long count;
Warning[207]: Found label after column 1. (INTCON3bits.INT3IE)
  00000000            00159         INTCON3bits.INT3IE = 0;
Warning[207]: Found label after column 1. (count)
Error[113]  : Symbol not previously defined (Encoder_2_Count)
  00000000            00160         count = Encoder_2_Count;
Warning[207]: Found label after column 1. (INTCON3bits.INT3IE)
  00000001            00161         INTCON3bits.INT3IE = 1;
Error[152]  : Executable code and data must be defined in an appropriate section
000000                00162         return(count);;
Error[108]  : Illegal character (})
000000                00163 }
Error[108]  : Illegal character (/)
000000                00164 //*****************************************************************************
Error[122]  : Illegal opcode (Reset_Encoder_2_Count)
000000                00165 void Reset_Encoder_2_Count(void)
Error[108]  : Illegal character ({)
000000                00166 {
Warning[207]: Found label after column 1. (INTCON3bits.INT3IE)
  00000000            00167         INTCON3bits.INT3IE = 0;
Warning[207]: Found label after column 1. (Encoder_2_Count)
  00000000            00168         Encoder_2_Count = 0;
Warning[207]: Found label after column 1. (INTCON3bits.INT3IE)
  00000001            00169         INTCON3bits.INT3IE = 1;
MPASM 03.90 Released                      INTERRUPTHANDLERS.C   4-19-2006  15:34:01         PAGE 32


LOC  OBJECT CODE     LINE SOURCE TEXT
  VALUE

Error[108]  : Illegal character (})
  00000001            00170 }
Error[108]  : Illegal character (/)
  00000001            00171 //*****************************************************************************
Error[122]  : Illegal opcode (Encoder_2_Int_Handler)
  00000001            00172 void Encoder_2_Int_Handler(void)
Error[108]  : Illegal character ({)
  00000001            00173 {
Error[113]  : Symbol not previously defined (PORTJbits.RJ3)
                      00174         if(CIM_LEFT_ENCODER_DIR == 0)
Warning[207]: Found label after column 1. (Encoder_2_Count)
  FFFFFFFF            00175                 Encoder_2_Count--;;
                      00176         else
                      00177                 Encoder_2_Count++;;
                      00178 }
                      00179 //*****************************************************************************
                      00180 //*****************************************************************************
                      00181 #endif  //ENABLE_CIM_LEFT_ENCODER
                      00182 
                      00183 
                      00184 
                      00185 #ifdef ENABLE_ENCODER_3
Error[108]  : Illegal character (/)
                      00186 //*****************************************************************************
Error[108]  : Illegal character (/)
                      00187 //*****************************************************************************
Error[122]  : Illegal opcode (Get_Encoder_3_Count)
                      00188 long Get_Encoder_3_Count(void)
Error[108]  : Illegal character ({)
                      00189 {
Warning[207]: Found label after column 1. (long)
Error[122]  : Illegal opcode (count)
                      00190         long count;
Warning[207]: Found label after column 1. (INTCONbits.RBIE)
  00000000            00191         INTCONbits.RBIE = 0;
Warning[207]: Found label after column 1. (count)
Error[113]  : Symbol not previously defined (Encoder_3_Count)
  00000000            00192         count = Encoder_3_Count;
Warning[207]: Found label after column 1. (INTCONbits.RBIE)
  00000001            00193         INTCONbits.RBIE = 1;
Error[152]  : Executable code and data must be defined in an appropriate section
000000                00194         return(count);;
Error[108]  : Illegal character (})
000000                00195 }
Error[108]  : Illegal character (/)
000000                00196 //*****************************************************************************
Error[122]  : Illegal opcode (Reset_Encoder_3_Count)
000000                00197 void Reset_Encoder_3_Count(void)
Error[108]  : Illegal character ({)
000000                00198 {
Warning[207]: Found label after column 1. (INTCONbits.RBIE)
  00000000            00199         INTCONbits.RBIE = 0;
Warning[207]: Found label after column 1. (Encoder_3_Count)
MPASM 03.90 Released                      INTERRUPTHANDLERS.C   4-19-2006  15:34:01         PAGE 33


LOC  OBJECT CODE     LINE SOURCE TEXT
  VALUE

  00000000            00200         Encoder_3_Count = 0;
Warning[207]: Found label after column 1. (INTCONbits.RBIE)
  00000001            00201         INTCONbits.RBIE = 1;
Error[108]  : Illegal character (})
  00000001            00202 }
Error[108]  : Illegal character (/)
  00000001            00203 //*****************************************************************************
Error[122]  : Illegal opcode (Encoder_3_Int_Handler)
  00000001            00204 void Encoder_3_Int_Handler(unsigned char state)
Error[108]  : Illegal character ({)
  00000001            00205 {
Error[113]  : Symbol not previously defined (state)
                      00206         if(state == 1)
                      00207         {
                      00208                 // rising-edge interrupt
                      00209                 if(ENCODER_3_PHASE_B_PIN == 0)
                      00210                 {
                      00211                         // backward
                      00212                         if(Encoder_3_State == 1)
                      00213                         {
                      00214                                 Encoder_3_Count--;;
                      00215                         }
                      00216                 }
                      00217                 else
                      00218                 {
                      00219                         // forward
                      00220                         if(Encoder_3_State == 0)
                      00221                         {
                      00222                                 Encoder_3_Count++;;
                      00223                         }
                      00224                 }
                      00225         }
                      00226         else
                      00227         {
                      00228                 // falling-edge interrupt
                      00229                 //   phase b is zero if moving forward
                      00230                 //   phase b is one if moving backward
                      00231                 Encoder_3_State = ENCODER_3_PHASE_B_PIN;
                      00232         }
                      00233 }
                      00234 //*****************************************************************************
                      00235 //*****************************************************************************
                      00236 #endif  //ENABLE_ENCODER_3
                      00237 
                      00238 
                      00239 
                      00240 #ifdef ENABLE_ENCODER_4
                      00241 //*****************************************************************************
                      00242 //*****************************************************************************
                      00243 long Get_Encoder_4_Count(void)
                      00244 {
                      00245         long count;
                      00246         INTCONbits.RBIE = 0;
MPASM 03.90 Released                      INTERRUPTHANDLERS.C   4-19-2006  15:34:01         PAGE 34


LOC  OBJECT CODE     LINE SOURCE TEXT
  VALUE

                      00247         count = Encoder_4_Count;
                      00248         INTCONbits.RBIE = 1;
                      00249         return(count);;
                      00250 }
                      00251 //*****************************************************************************
                      00252 void Reset_Encoder_4_Count(void)
                      00253 {
                      00254         INTCONbits.RBIE = 0;
                      00255         Encoder_4_Count = 0;
                      00256         INTCONbits.RBIE = 1;
                      00257 }
                      00258 //*****************************************************************************
                      00259 void Encoder_4_Int_Handler(unsigned char state)
                      00260 {
                      00261         if(state == 1)
                      00262         {
                      00263                 // rising-edge interrupt
                      00264                 if(ENCODER_4_PHASE_B_PIN == 0)
                      00265                 {
                      00266                         // backward
                      00267                         if(Encoder_4_State == 1)
                      00268                         {
                      00269                                 Encoder_4_Count--;;
                      00270                         }
                      00271                 }
                      00272                 else
                      00273                 {
                      00274                         // forward
                      00275                         if(Encoder_4_State == 0)
                      00276                         {
                      00277                                 Encoder_4_Count++;;
                      00278                         }
                      00279                 }
                      00280         }
                      00281         else
                      00282         {
                      00283                 // falling-edge interrupt
                      00284                 //   phase b is zero if moving forward
                      00285                 //   phase b is one if moving backward
                      00286                 Encoder_4_State = ENCODER_4_PHASE_B_PIN;
                      00287         }
                      00288 }
                      00289 //*****************************************************************************
                      00290 //*****************************************************************************
                      00291 #endif //ENABLE_ENCODER_4
                      00292 
                      00293 #ifdef ENABLE_ENCODER_5
                      00294 //*****************************************************************************
                      00295 //*****************************************************************************
                      00296 long Get_Encoder_5_Count(void)
                      00297 {
                      00298         long count;
                      00299         INTCONbits.RBIE = 0;
MPASM 03.90 Released                      INTERRUPTHANDLERS.C   4-19-2006  15:34:01         PAGE 35


LOC  OBJECT CODE     LINE SOURCE TEXT
  VALUE

                      00300         count = Encoder_5_Count;
                      00301         INTCONbits.RBIE = 1;
                      00302         return(count);;
                      00303 }
                      00304 //*****************************************************************************
                      00305 void Reset_Encoder_5_Count(void)
                      00306 {
                      00307         INTCONbits.RBIE = 0;
                      00308         Encoder_5_Count = 0;
                      00309         INTCONbits.RBIE = 1;
                      00310 }
                      00311 //*****************************************************************************
                      00312 
                      00313 void Encoder_5_Int_Handler(unsigned char state)
                      00314 {
                      00315         if(state == 1)
                      00316         {
                      00317                 // rising-edge interrupt
                      00318                 if(ENCODER_5_PHASE_B_PIN == 0)
                      00319                 {
                      00320                         Encoder_5_Count--;;
                      00321                 }
                      00322                 else
                      00323                 {
                      00324                         Encoder_5_Count++;;
                      00325                 }
                      00326         }
                      00327         else
                      00328         {
                      00329                 // falling-edge interrupt
                      00330                 if(ENCODER_5_PHASE_B_PIN == 0)
                      00331                 {
                      00332                         Encoder_5_Count++;;
                      00333                 }
                      00334                 else
                      00335                 {
                      00336                         Encoder_5_Count--;;
                      00337                 }
                      00338         }
                      00339 }
                      00340 //*****************************************************************************
                      00341 //*****************************************************************************
                      00342 #endif  //ENABLE_ENCODER_5
                      00343 
                      00344 
                      00345 
                      00346 #ifdef ENABLE_ENCODER_6
                      00347 //*****************************************************************************
                      00348 //*****************************************************************************
                      00349 long Get_Encoder_6_Count(void)
                      00350 {
                      00351         long count;
                      00352         INTCONbits.RBIE = 0;
MPASM 03.90 Released                      INTERRUPTHANDLERS.C   4-19-2006  15:34:01         PAGE 36


LOC  OBJECT CODE     LINE SOURCE TEXT
  VALUE

                      00353         count = Encoder_6_Count;
                      00354         INTCONbits.RBIE = 1;
                      00355         return(count);;
                      00356 }
                      00357 //*****************************************************************************
                      00358 void Reset_Encoder_6_Count(void)
                      00359 {
                      00360         INTCONbits.RBIE = 0;
                      00361         Encoder_6_Count = 0;
                      00362         INTCONbits.RBIE = 1;
                      00363 }
                      00364 //*****************************************************************************
                      00365 void Encoder_6_Int_Handler(unsigned char state)
                      00366 {
                      00367         if(state == 1)
                      00368         {
                      00369                 // rising-edge interrupt
Error[142]  : IFs nested too deep
                      00370                 if(ENCODER_6_PHASE_B_PIN == 0)
                      00371                 {
                      00372                         Encoder_6_Count--;;
                      00373                 }
                      00374                 else
                      00375                 {
                      00376                         Encoder_6_Count++;;
                      00377                 }
                      00378         }
                      00379         else
                      00380         {
                      00381                 // falling-edge interrupt
Error[142]  : IFs nested too deep
                      00382                 if(ENCODER_6_PHASE_B_PIN == 0)
                      00383                 {
                      00384                         Encoder_6_Count++;;
                      00385                 }
                      00386                 else
                      00387                 {
                      00388                         Encoder_6_Count--;;
                      00389                 }
                      00390         }
                      00391 }
                      00392 //*****************************************************************************
                      00393 //*****************************************************************************
                      00394 #endif  //ENABLE_ENCODER_6
                      00395 
                      00396 
                      00397 
                      00398 //*****************************************************************************
                      00399 void Initialize_timer(void)
                      00400 {
                      00401         OpenTimer0(TIMER_INT_ON & T0_16BIT  & T0_SOURCE_INT & T0_PS_1_4);;
                      00402 }
                      00403 //*****************************************************************************
MPASM 03.90 Released                      INTERRUPTHANDLERS.C   4-19-2006  15:34:01         PAGE 37


LOC  OBJECT CODE     LINE SOURCE TEXT
  VALUE

                      00404 void Timer_0_Int_Handler(void)
                      00405 {
                      00406         Timer_High_Count++;     ;     
                      00407         //t0_int_handler=1;
                      00408 }
                      00409 //*****************************************************************************
MPASM 03.90 Released                      INTERRUPTHANDLERS.C   4-19-2006  15:34:01         PAGE 38


SYMBOL TABLE
  LABEL                             VALUE 

CIM_LEFT_ENCODER_DIR              rc_dig_in13
CIM_RIGHT_ENCODER_DIR             rc_dig_in11
DATA_SIZE                         30
DECLARATIONS                      00000000
ENABLE_CIM_LEFT_ENCODER           
ENABLE_CIM_RIGHT_ENCODER          
ENABLE_ENCODER_3                  
ENABLE_ENCODER_3_6                
ENABLE_ENCODER_4                  
ENABLE_ENCODER_5                  
ENABLE_ENCODER_6                  
ENCODER_1_TICK_DELTA              1
ENCODER_2_TICK_DELTA              1
ENCODER_3_PHASE_B_PIN             rc_dig_in13
ENCODER_3_TICK_DELTA              1
ENCODER_4_PHASE_B_PIN             rc_dig_in14
ENCODER_4_TICK_DELTA              1
ENCODER_5_PHASE_B_PIN             rc_dig_in15
ENCODER_5_TICK_DELTA              1
ENCODER_6_PHASE_B_PIN             rc_dig_in16
ENCODER_6_TICK_DELTA              1
EncoderLeft                       00000000
Encoder_1_Count                   FFFFFFFF
Encoder_2_Count                   FFFFFFFF
Encoder_3_Count                   00000000
FALSE                             0
HIGH_INT_VECTOR                   0x808
IFI_PWM                           0     /* Standard IFI PWM output generated with Generate_PWM(...) */
INPUT                             1
INTCON2bits.INT3P                 00000000
INTCON2bits.INTEDG2               00000001
INTCON2bits.INTEDG3               00000001
INTCON2bits.RBIP                  00000000
INTCON3bits.INT2IE                00000001
INTCON3bits.INT2IF                00000000
INTCON3bits.INT2IP                00000000
INTCON3bits.INT3IE                00000001
INTCON3bits.INT3IF                00000000
INTCONbits.RBIE                   00000001
INTCONbits.RBIF                   00000000
IN_CCP2                           PORTEbits.RE7
IN_CCP3                           PORTGbits.RG0
IN_CCP4                           PORTGbits.RG3
IN_CCP5                           PORTGbits.RG4
IO_CCP2                           TRISEbits.TRISE7
IO_CCP3                           TRISGbits.TRISG0
IO_CCP4                           TRISGbits.TRISG3
IO_CCP5                           TRISGbits.TRISG4
LOW_INT_VECTOR                    0x818
OUTPUT                            0
OUT_CCP2                          LATEbits.LATE7
OUT_CCP3                          LATGbits.LATG0
OUT_CCP4                          LATGbits.LATG3
MPASM 03.90 Released                      INTERRUPTHANDLERS.C   4-19-2006  15:34:01         PAGE 39


SYMBOL TABLE
  LABEL                             VALUE 

OUT_CCP5                          LATGbits.LATG4
Old_Port_B                        00000000
Pwm1_green                        txdata.LED_byte1.bitselect.bit0
Pwm1_red                          txdata.LED_byte1.bitselect.bit1
Pwm2_green                        txdata.LED_byte1.bitselect.bit2
Pwm2_red                          txdata.LED_byte1.bitselect.bit3
RESET_VECTOR                      0x800
Relay1_green                      txdata.LED_byte1.bitselect.bit5
Relay1_red                        txdata.LED_byte1.bitselect.bit4
Relay2_green                      txdata.LED_byte1.bitselect.bit7
Relay2_red                        txdata.LED_byte1.bitselect.bit6
SIXTEEN_ANALOG                    ADC_16ANA   /* All analog */
SPI_TRAILER_SIZE                  2
SPI_XFER_SIZE                     DATA_SIZE + SPI_TRAILER_SIZE
Switch1_LED                       txdata.LED_byte2.bitselect.bit0
Switch2_LED                       txdata.LED_byte2.bitselect.bit1
Switch3_LED                       txdata.LED_byte2.bitselect.bit2
TRISBbits.TRISB2                  00000001
TRISBbits.TRISB3                  00000001
TRISBbits.TRISB4                  00000001
TRISBbits.TRISB5                  00000001
TRISBbits.TRISB6                  00000001
TRISBbits.TRISB7                  00000001
TRUE                              !FALSE
UNCHANGEABLE_DEFINITION_AREA      1
USER_CCP                          1     /* User can use PWM pin as digital I/O or CCP pin. */
User_Byte1                        txdata.user_byte1.allbits
User_Byte2                        txdata.user_byte2.allbits
User_Byte3                        txdata.user_byte3   /* This byte is now used for breaker panel byte 3 */
User_Byte4                        txdata.user_byte4   /* This byte is now used for breaker panel byte 4 */
User_Byte5                        txdata.user_byte5   /* This byte is now used for breaker panel byte 5 */
User_Byte6                        txdata.user_byte6   /* This byte is now used for breaker panel byte 6 */
User_Mode_byte                    txdata.LED_byte1.data
__18F8722                         00000001
__ifi_aliases_h_                  
__ifi_default_h_                  
_interruptHandlers_h              
autonomous_mode                   rxdata.rc_mode_byte.mode.autonomous
backup_voltage                    rxdata.rc_backup_batt*15.64/256
battery_voltage                   rxdata.rc_main_batt*15.64/256
count                             00000000
digital_io_01                     TRISBbits.TRISB2
digital_io_02                     TRISBbits.TRISB3
digital_io_03                     TRISBbits.TRISB4
digital_io_04                     TRISBbits.TRISB5
digital_io_05                     TRISBbits.TRISB6
digital_io_06                     TRISBbits.TRISB7
digital_io_07                     TRISHbits.TRISH0
digital_io_08                     TRISHbits.TRISH1
digital_io_09                     TRISHbits.TRISH2
digital_io_10                     TRISHbits.TRISH3
digital_io_11                     TRISJbits.TRISJ1
digital_io_12                     TRISJbits.TRISJ2
MPASM 03.90 Released                      INTERRUPTHANDLERS.C   4-19-2006  15:34:01         PAGE 40


SYMBOL TABLE
  LABEL                             VALUE 

digital_io_13                     TRISJbits.TRISJ3
digital_io_14                     TRISCbits.TRISC0
digital_io_15                     TRISJbits.TRISJ4
digital_io_16                     TRISJbits.TRISJ5
digital_io_17                     TRISJbits.TRISJ6
digital_io_18                     TRISJbits.TRISJ7
disabled_mode                     rxdata.rc_mode_byte.mode.disabled
kAxleLengthInch                   28
kEncoderTicksPerFt                81.49
kEncoderTicksPerFt256             kEncoderTicksPerFt*256L //use care to wrap in '()' when dividing!
kNeutral                          127u
kPI                               3.14159
kTurnTicksPerDegree               (long)kAxleLengthInch*128L*2/(360*6)
kTurnTicksPerDegree256            (long)(kAxleLengthInch*256*128L*2/(360*6)
mAbsDiff                          ((A)>(B)?((A)-(B)):((B)-(A)))
mAbsolute                         ((A)<0?-(A):(A))
mDivideBy128                      mDivideByPowerOf2(AAA,7)
mDivideBy16                       mDivideByPowerOf2(AAA,4)
mDivideBy2                        mDivideByPowerOf2(AAA,1)
mDivideBy256                      mDivideByPowerOf2(AAA,8)
mDivideBy32                       mDivideByPowerOf2(AAA,5)
mDivideBy4                        mDivideByPowerOf2(AAA,2)
mDivideBy64                       mDivideByPowerOf2(AAA,6)
mDivideBy8                        mDivideByPowerOf2(AAA,3)
mDivideByPowerOf2                 ((AAA)>=0 ? ((AAA)>>(pwr2)) : -(-(AAA)>>(pwr2)))
mIsPowerOf2                       (0==(((AAA)-1)&(AAA)))
mLimitRange                       do {\
mModPowerOf2                      ((AAA > 0) ? ((1L<<pwr2)-1)&(AAA) : -(((1L<<pwr2)-1)&(-(AAA))))
mSign                             ((A)>0 ? 1 : ((A)<0 ? -1:0))
p1_aux                            rxdata.oi_analog13
p1_sw_aux1                        rxdata.oi_swA_byte.bitselect.bit2 /* Aux input,               same as Port4 pin9 */
p1_sw_aux2                        rxdata.oi_swA_byte.bitselect.bit3 /* Aux input,               same as Port4 pin15*/
p1_sw_top                         rxdata.oi_swA_byte.bitselect.bit1 /* Joystick Top Button,     same as Port4 pin8 */
p1_sw_trig                        rxdata.oi_swA_byte.bitselect.bit0 /* Joystick Trigger Button, same as Port4 pin5 */
p1_wheel                          rxdata.oi_analog09
p1_x                              rxdata.oi_analog05
p1_y                              rxdata.oi_analog01
p2_aux                            rxdata.oi_analog14
p2_sw_aux1                        rxdata.oi_swB_byte.bitselect.bit2 /* Aux input*/
p2_sw_aux2                        rxdata.oi_swB_byte.bitselect.bit3 /* Aux input*/
p2_sw_top                         rxdata.oi_swB_byte.bitselect.bit1 /* Joystick Top Button*/
p2_sw_trig                        rxdata.oi_swB_byte.bitselect.bit0 /* Joystick Trigger Button*/
p2_wheel                          rxdata.oi_analog10
p2_x                              rxdata.oi_analog06
p2_y                              rxdata.oi_analog02
p3_aux                            rxdata.oi_analog15
p3_sw_aux1                        rxdata.oi_swA_byte.bitselect.bit6 /* Aux input,               same as Port2 pin9 */
p3_sw_aux2                        rxdata.oi_swA_byte.bitselect.bit7 /* Aux input,               same as Port2 pin15*/
p3_sw_top                         rxdata.oi_swA_byte.bitselect.bit5 /* Joystick Top Button,     same as Port2 pin8 */
p3_sw_trig                        rxdata.oi_swA_byte.bitselect.bit4 /* Joystick Trigger Button, same as Port2 pin5 */
p3_wheel                          rxdata.oi_analog11
p3_x                              rxdata.oi_analog07
p3_y                              rxdata.oi_analog03
MPASM 03.90 Released                      INTERRUPTHANDLERS.C   4-19-2006  15:34:01         PAGE 41


SYMBOL TABLE
  LABEL                             VALUE 

p4_aux                            rxdata.oi_analog16
p4_sw_aux1                        rxdata.oi_swB_byte.bitselect.bit6 /* Aux input*/
p4_sw_aux2                        rxdata.oi_swB_byte.bitselect.bit7 /* Aux input*/
p4_sw_top                         rxdata.oi_swB_byte.bitselect.bit5 /* Joystick Top Button*/
p4_sw_trig                        rxdata.oi_swB_byte.bitselect.bit4 /* Joystick Trigger Button*/
p4_wheel                          rxdata.oi_analog12
p4_x                              rxdata.oi_analog08
p4_y                              rxdata.oi_analog04
pwm01                             txdata.rc_pwm01
pwm02                             txdata.rc_pwm02
pwm03                             txdata.rc_pwm03
pwm04                             txdata.rc_pwm04
pwm05                             txdata.rc_pwm05
pwm06                             txdata.rc_pwm06
pwm07                             txdata.rc_pwm07
pwm08                             txdata.rc_pwm08
pwm09                             txdata.rc_pwm09
pwm10                             txdata.rc_pwm10
pwm11                             txdata.rc_pwm11
pwm12                             txdata.rc_pwm12
pwm13                             txdata.rc_pwm13
pwm14                             txdata.rc_pwm14
pwm15                             txdata.rc_pwm15
pwm16                             txdata.rc_pwm16
rc_ana_in01                       ADC_CH0
rc_ana_in02                       ADC_CH1
rc_ana_in03                       ADC_CH2
rc_ana_in04                       ADC_CH3
rc_ana_in05                       ADC_CH4
rc_ana_in06                       ADC_CH5
rc_ana_in07                       ADC_CH6
rc_ana_in08                       ADC_CH7
rc_ana_in09                       ADC_CH8
rc_ana_in10                       ADC_CH9
rc_ana_in11                       ADC_CH10
rc_ana_in12                       ADC_CH11
rc_ana_in13                       ADC_CH12
rc_ana_in14                       ADC_CH13
rc_ana_in15                       ADC_CH14
rc_ana_in16                       ADC_CH15
rc_dig_in01                       PORTBbits.RB2   /* external interrupt RB2/INT2      */
rc_dig_in02                       PORTBbits.RB3   /* external interrupt RB3/INT3      */
rc_dig_in03                       PORTBbits.RB4   /* external interrupt-on-change RB4 */
rc_dig_in04                       PORTBbits.RB5   /* external interrupt-on-change RB5 */
rc_dig_in05                       PORTBbits.RB6   /* external interrupt-on-change RB6 */
rc_dig_in06                       PORTBbits.RB7   /* external interrupt-on-change RB7 */
rc_dig_in07                       PORTHbits.RH0
rc_dig_in08                       PORTHbits.RH1
rc_dig_in09                       PORTHbits.RH2
rc_dig_in10                       PORTHbits.RH3
rc_dig_in11                       PORTJbits.RJ1
rc_dig_in12                       PORTJbits.RJ2
rc_dig_in13                       PORTJbits.RJ3
MPASM 03.90 Released                      INTERRUPTHANDLERS.C   4-19-2006  15:34:01         PAGE 42


SYMBOL TABLE
  LABEL                             VALUE 

rc_dig_in14                       PORTCbits.RC0
rc_dig_in15                       PORTJbits.RJ4
rc_dig_in16                       PORTJbits.RJ5
rc_dig_in17                       PORTJbits.RJ6
rc_dig_in18                       PORTJbits.RJ7
rc_dig_out01                      LATBbits.LATB2
rc_dig_out02                      LATBbits.LATB3
rc_dig_out03                      LATBbits.LATB4
rc_dig_out04                      LATBbits.LATB5
rc_dig_out05                      LATBbits.LATB6
rc_dig_out06                      LATBbits.LATB7
rc_dig_out07                      LATHbits.LATH0
rc_dig_out08                      LATHbits.LATH1
rc_dig_out09                      LATHbits.LATH2
rc_dig_out10                      LATHbits.LATH3
rc_dig_out11                      LATJbits.LATJ1
rc_dig_out12                      LATJbits.LATJ2
rc_dig_out13                      LATJbits.LATJ3
rc_dig_out14                      LATCbits.LATC0
rc_dig_out15                      LATJbits.LATJ4
rc_dig_out16                      LATJbits.LATJ5
rc_dig_out17                      LATJbits.LATJ6
rc_dig_out18                      LATJbits.LATJ7
relay1_fwd                        LATEbits.LATE0
relay1_rev                        LATDbits.LATD0
relay2_fwd                        LATEbits.LATE1
relay2_rev                        LATDbits.LATD1
relay3_fwd                        LATEbits.LATE2
relay3_rev                        LATDbits.LATD2
relay4_fwd                        LATEbits.LATE3
relay4_rev                        LATDbits.LATD3
relay5_fwd                        LATEbits.LATE4
relay5_rev                        LATDbits.LATD4
relay6_fwd                        LATEbits.LATE5
relay6_rev                        LATDbits.LATD5
relay7_fwd                        LATEbits.LATE6
relay7_rev                        LATDbits.LATD6
relay8_fwd                        LATJbits.LATJ0
relay8_rev                        LATDbits.LATD7
typedef                           00000000
union                             00000000
usart2_RX                         PORTGbits.RG2
usart2_TX                         LATGbits.LATG1
user_display_mode                 rxdata.rc_mode_byte.mode.user_display
utilities_h_                      

Errors   :   523
Warnings :   151 reported,     0 suppressed
Messages :     0 reported,     0 suppressed

